LIBRARY "zoidcom_vc.dll"
EXPORTS
    _ZN12ZCom_Address10setAddressE17eZCom_AddressTypehPKc NONAME
    _ZN12ZCom_Address12setControlIDEh NONAME
    _ZN12ZCom_Address13checkHostnameEv NONAME
    _ZN12ZCom_Address15resolveHostnameEbj NONAME
    _ZN12ZCom_Address5setIPEhhhh NONAME
    _ZN12ZCom_Address5setIPEj NONAME
    _ZN12ZCom_Address7setPortEt NONAME
    _ZN12ZCom_Address7setTypeE17eZCom_AddressType NONAME
    _ZN12ZCom_AddressC1ERKS_ NONAME
    _ZN12ZCom_AddressC1Ev NONAME
    _ZN12ZCom_AddressC2ERKS_ NONAME
    _ZN12ZCom_AddressC2Ev NONAME
    _ZN12ZCom_AddressD1Ev NONAME
    _ZN12ZCom_AddressD2Ev NONAME
    _ZN12ZCom_AddressaSERKS_ NONAME
    _ZN12ZCom_Control12ZCom_ConnectERK12ZCom_AddressP14ZCom_BitStream NONAME
    _ZN12ZCom_Control13ZCom_DiscoverERK12ZCom_AddressP14ZCom_BitStream NONAME
    _ZN12ZCom_Control13ZCom_sendDataEjP14ZCom_BitStream14eZCom_SendMode NONAME
    _ZN12ZCom_Control15ZCom_DisconnectEjP14ZCom_BitStream NONAME
    _ZN12ZCom_Control16ZCom_initSocketsEbtth NONAME
    _ZN12ZCom_Control16ZCom_sendDataRawER12ZCom_AddressPvj NONAME
    _ZN12ZCom_Control16ZCom_setUserDataEjPv NONAME
    _ZN12ZCom_Control16ZCom_simulateLagEjj NONAME
    _ZN12ZCom_Control17ZCom_processInputE15eZCom_BlockMode NONAME
    _ZN12ZCom_Control17ZCom_setControlIDEh NONAME
    _ZN12ZCom_Control17ZCom_setDebugNameEPKc NONAME
    _ZN12ZCom_Control17ZCom_simulateLossEjf NONAME
    _ZN12ZCom_Control18ZCom_disconnectAllEP14ZCom_BitStream NONAME
    _ZN12ZCom_Control18ZCom_processOutputEv NONAME
    _ZN12ZCom_Control18ZCom_registerClassEPKcj NONAME
    _ZN12ZCom_Control19ZCom_getCurrentTimeEv NONAME
    _ZN12ZCom_Control20ZCom_createBitStreamEv NONAME
    _ZN12ZCom_Control20ZCom_deleteBitStreamEP14ZCom_BitStream NONAME
    _ZN12ZCom_Control20ZCom_getGroupManagerEv NONAME
    _ZN12ZCom_Control20ZCom_requestZoidModeEjh NONAME
    _ZN12ZCom_Control20ZCom_sendDataToGroupEjP14ZCom_BitStream14eZCom_SendMode NONAME
    _ZN12ZCom_Control21ZCom_setUpstreamLimitEjj NONAME
    _ZN12ZCom_Control23ZCom_processReplicatorsEj NONAME
    _ZN12ZCom_Control24ZCom_setDiscoverListenerE17eZCom_DiscoverOptt NONAME
    _ZN12ZCom_Control27ZCom_requestDownstreamLimitEjtt NONAME
    _ZN12ZCom_Control8ShutdownEv NONAME
    _ZN12ZCom_ControlC1Ev NONAME
    _ZN12ZCom_ControlC2Ev NONAME
    _ZN12ZCom_ControlD0Ev NONAME
    _ZN12ZCom_ControlD1Ev NONAME
    _ZN12ZCom_ControlD2Ev NONAME
    _ZN14ZCom_BitStream10addStringWEPKw NONAME
    _ZN14ZCom_BitStream10getStringWEPwt NONAME
    _ZN14ZCom_BitStream10skipBufferEt NONAME
    _ZN14ZCom_BitStream10skipStringEv NONAME
    _ZN14ZCom_BitStream11DeserializeEPct NONAME
    _ZN14ZCom_BitStream11getSizeHintEv NONAME
    _ZN14ZCom_BitStream12addBitStreamEPS_b NONAME
    _ZN14ZCom_BitStream12addSignedIntEih NONAME
    _ZN14ZCom_BitStream12getBitStreamEjb NONAME
    _ZN14ZCom_BitStream12getBufferMaxEv NONAME
    _ZN14ZCom_BitStream12getSignedIntEh NONAME
    _ZN14ZCom_BitStream12logReadStateEv NONAME
    _ZN14ZCom_BitStream13getStringSizeEv NONAME
    _ZN14ZCom_BitStream13logWriteStateEv NONAME
    _ZN14ZCom_BitStream13skipSignedIntEh NONAME
    _ZN14ZCom_BitStream15getStringLengthEv NONAME
    _ZN14ZCom_BitStream15getStringStaticEv NONAME
    _ZN14ZCom_BitStream16getStringWLengthEv NONAME
    _ZN14ZCom_BitStream16getStringWStaticEv NONAME
    _ZN14ZCom_BitStream5ClearEv NONAME
    _ZN14ZCom_BitStream6addIntEjh NONAME
    _ZN14ZCom_BitStream6getIntEh NONAME
    _ZN14ZCom_BitStream7addBoolEb NONAME
    _ZN14ZCom_BitStream7getBoolEv NONAME
    _ZN14ZCom_BitStream7skipIntEh NONAME
    _ZN14ZCom_BitStream8addFloatEfh NONAME
    _ZN14ZCom_BitStream8getFloatEh NONAME
    _ZN14ZCom_BitStream8skipBitsEj NONAME
    _ZN14ZCom_BitStream8skipBoolEv NONAME
    _ZN14ZCom_BitStream9SerializeEPcPtt NONAME
    _ZN14ZCom_BitStream9addBufferEPct NONAME
    _ZN14ZCom_BitStream9addStringEPKc NONAME
    _ZN14ZCom_BitStream9getBufferEPct NONAME
    _ZN14ZCom_BitStream9getStringEPct NONAME
    _ZN14ZCom_BitStream9getStringEv NONAME
    _ZN14ZCom_BitStream9skipFloatEh NONAME
    _ZN14ZCom_BitStreamC1ERKS_ NONAME
    _ZN14ZCom_BitStreamC1Et NONAME
    _ZN14ZCom_BitStreamC2ERKS_ NONAME
    _ZN14ZCom_BitStreamC2Et NONAME
    _ZN14ZCom_BitStreamD1Ev NONAME
    _ZN14ZCom_BitStreamD2Ev NONAME
    _ZN14ZCom_BitStreamaSERKS_ NONAME
    _ZN14ZCom_BitStreamdlEPv NONAME
    _ZN14ZCom_BitStreamnwEj NONAME
    _ZN15ZCom_Replicator13peekDataStoreEPv NONAME
    _ZN15ZCom_Replicator16peekDataRetrieveEv NONAME
    _ZN15ZCom_ReplicatorC1EP20ZCom_ReplicatorSetup NONAME
    _ZN15ZCom_ReplicatorC2EP20ZCom_ReplicatorSetup NONAME
    _ZN15ZCom_ReplicatorD0Ev NONAME
    _ZN15ZCom_ReplicatorD1Ev NONAME
    _ZN15ZCom_ReplicatorD2Ev NONAME
    _ZN15ZCom_ReplicatordlEPv NONAME
    _ZN15ZCom_ReplicatornwEj NONAME
    _ZN16ZCom_InterpolateIPfLi10EE10checkStateEv NONAME
    _ZN16ZCom_InterpolateIPfLi10EE10unpackDataEP14ZCom_BitStreambj NONAME
    _ZN16ZCom_InterpolateIPfLi10EE12getRecValPtrEh NONAME
    _ZN16ZCom_InterpolateIPfLi10EE13clearPeekDataEv NONAME
    _ZN16ZCom_InterpolateIPfLi10EE7ProcessE14eZCom_NodeRolej NONAME
    _ZN16ZCom_InterpolateIPfLi10EE8getValueEh NONAME
    _ZN16ZCom_InterpolateIPfLi10EE8packDataEP14ZCom_BitStream NONAME
    _ZN16ZCom_InterpolateIPfLi10EE8peekDataEv NONAME
    _ZN16ZCom_InterpolateIPfLi10EE8setValueES0_ NONAME
    _ZN16ZCom_InterpolateIPfLi10EE8setValueEhf NONAME
    _ZN16ZCom_InterpolateIPfLi10EE9setRecValEhf NONAME
    _ZN16ZCom_InterpolateIPfLi10EEC1ES0_P22ZCom_RSetupInterpolateIfE NONAME
    _ZN16ZCom_InterpolateIPfLi10EEC1ES0_hhhfS0_hssf NONAME
    _ZN16ZCom_InterpolateIPfLi10EEC2ES0_P22ZCom_RSetupInterpolateIfE NONAME
    _ZN16ZCom_InterpolateIPfLi10EEC2ES0_hhhfS0_hssf NONAME
    _ZN16ZCom_InterpolateIPfLi10EED0Ev NONAME
    _ZN16ZCom_InterpolateIPfLi10EED1Ev NONAME
    _ZN16ZCom_InterpolateIPfLi10EED2Ev NONAME
    _ZN16ZCom_InterpolateIPfLi11EE10checkStateEv NONAME
    _ZN16ZCom_InterpolateIPfLi11EE10unpackDataEP14ZCom_BitStreambj NONAME
    _ZN16ZCom_InterpolateIPfLi11EE12getRecValPtrEh NONAME
    _ZN16ZCom_InterpolateIPfLi11EE13clearPeekDataEv NONAME
    _ZN16ZCom_InterpolateIPfLi11EE7ProcessE14eZCom_NodeRolej NONAME
    _ZN16ZCom_InterpolateIPfLi11EE8getValueEh NONAME
    _ZN16ZCom_InterpolateIPfLi11EE8packDataEP14ZCom_BitStream NONAME
    _ZN16ZCom_InterpolateIPfLi11EE8peekDataEv NONAME
    _ZN16ZCom_InterpolateIPfLi11EE8setValueES0_ NONAME
    _ZN16ZCom_InterpolateIPfLi11EE8setValueEhf NONAME
    _ZN16ZCom_InterpolateIPfLi11EE9setRecValEhf NONAME
    _ZN16ZCom_InterpolateIPfLi11EEC1ES0_P22ZCom_RSetupInterpolateIfE NONAME
    _ZN16ZCom_InterpolateIPfLi11EEC1ES0_hhhfS0_hssf NONAME
    _ZN16ZCom_InterpolateIPfLi11EEC2ES0_P22ZCom_RSetupInterpolateIfE NONAME
    _ZN16ZCom_InterpolateIPfLi11EEC2ES0_hhhfS0_hssf NONAME
    _ZN16ZCom_InterpolateIPfLi11EED0Ev NONAME
    _ZN16ZCom_InterpolateIPfLi11EED1Ev NONAME
    _ZN16ZCom_InterpolateIPfLi11EED2Ev NONAME
    _ZN16ZCom_InterpolateIPfLi12EE10checkStateEv NONAME
    _ZN16ZCom_InterpolateIPfLi12EE10unpackDataEP14ZCom_BitStreambj NONAME
    _ZN16ZCom_InterpolateIPfLi12EE12getRecValPtrEh NONAME
    _ZN16ZCom_InterpolateIPfLi12EE13clearPeekDataEv NONAME
    _ZN16ZCom_InterpolateIPfLi12EE7ProcessE14eZCom_NodeRolej NONAME
    _ZN16ZCom_InterpolateIPfLi12EE8getValueEh NONAME
    _ZN16ZCom_InterpolateIPfLi12EE8packDataEP14ZCom_BitStream NONAME
    _ZN16ZCom_InterpolateIPfLi12EE8peekDataEv NONAME
    _ZN16ZCom_InterpolateIPfLi12EE8setValueES0_ NONAME
    _ZN16ZCom_InterpolateIPfLi12EE8setValueEhf NONAME
    _ZN16ZCom_InterpolateIPfLi12EE9setRecValEhf NONAME
    _ZN16ZCom_InterpolateIPfLi12EEC1ES0_P22ZCom_RSetupInterpolateIfE NONAME
    _ZN16ZCom_InterpolateIPfLi12EEC1ES0_hhhfS0_hssf NONAME
    _ZN16ZCom_InterpolateIPfLi12EEC2ES0_P22ZCom_RSetupInterpolateIfE NONAME
    _ZN16ZCom_InterpolateIPfLi12EEC2ES0_hhhfS0_hssf NONAME
    _ZN16ZCom_InterpolateIPfLi12EED0Ev NONAME
    _ZN16ZCom_InterpolateIPfLi12EED1Ev NONAME
    _ZN16ZCom_InterpolateIPfLi12EED2Ev NONAME
    _ZN16ZCom_InterpolateIPfLi1EE10checkStateEv NONAME
    _ZN16ZCom_InterpolateIPfLi1EE10unpackDataEP14ZCom_BitStreambj NONAME
    _ZN16ZCom_InterpolateIPfLi1EE12getRecValPtrEh NONAME
    _ZN16ZCom_InterpolateIPfLi1EE13clearPeekDataEv NONAME
    _ZN16ZCom_InterpolateIPfLi1EE7ProcessE14eZCom_NodeRolej NONAME
    _ZN16ZCom_InterpolateIPfLi1EE8getValueEh NONAME
    _ZN16ZCom_InterpolateIPfLi1EE8packDataEP14ZCom_BitStream NONAME
    _ZN16ZCom_InterpolateIPfLi1EE8peekDataEv NONAME
    _ZN16ZCom_InterpolateIPfLi1EE8setValueES0_ NONAME
    _ZN16ZCom_InterpolateIPfLi1EE8setValueEhf NONAME
    _ZN16ZCom_InterpolateIPfLi1EE9setRecValEhf NONAME
    _ZN16ZCom_InterpolateIPfLi1EEC1ES0_P22ZCom_RSetupInterpolateIfE NONAME
    _ZN16ZCom_InterpolateIPfLi1EEC1ES0_hhhfS0_hssf NONAME
    _ZN16ZCom_InterpolateIPfLi1EEC2ES0_P22ZCom_RSetupInterpolateIfE NONAME
    _ZN16ZCom_InterpolateIPfLi1EEC2ES0_hhhfS0_hssf NONAME
    _ZN16ZCom_InterpolateIPfLi1EED0Ev NONAME
    _ZN16ZCom_InterpolateIPfLi1EED1Ev NONAME
    _ZN16ZCom_InterpolateIPfLi1EED2Ev NONAME
    _ZN16ZCom_InterpolateIPfLi2EE10checkStateEv NONAME
    _ZN16ZCom_InterpolateIPfLi2EE10unpackDataEP14ZCom_BitStreambj NONAME
    _ZN16ZCom_InterpolateIPfLi2EE12getRecValPtrEh NONAME
    _ZN16ZCom_InterpolateIPfLi2EE13clearPeekDataEv NONAME
    _ZN16ZCom_InterpolateIPfLi2EE7ProcessE14eZCom_NodeRolej NONAME
    _ZN16ZCom_InterpolateIPfLi2EE8getValueEh NONAME
    _ZN16ZCom_InterpolateIPfLi2EE8packDataEP14ZCom_BitStream NONAME
    _ZN16ZCom_InterpolateIPfLi2EE8peekDataEv NONAME
    _ZN16ZCom_InterpolateIPfLi2EE8setValueES0_ NONAME
    _ZN16ZCom_InterpolateIPfLi2EE8setValueEhf NONAME
    _ZN16ZCom_InterpolateIPfLi2EE9setRecValEhf NONAME
    _ZN16ZCom_InterpolateIPfLi2EEC1ES0_P22ZCom_RSetupInterpolateIfE NONAME
    _ZN16ZCom_InterpolateIPfLi2EEC1ES0_hhhfS0_hssf NONAME
    _ZN16ZCom_InterpolateIPfLi2EEC2ES0_P22ZCom_RSetupInterpolateIfE NONAME
    _ZN16ZCom_InterpolateIPfLi2EEC2ES0_hhhfS0_hssf NONAME
    _ZN16ZCom_InterpolateIPfLi2EED0Ev NONAME
    _ZN16ZCom_InterpolateIPfLi2EED1Ev NONAME
    _ZN16ZCom_InterpolateIPfLi2EED2Ev NONAME
    _ZN16ZCom_InterpolateIPfLi3EE10checkStateEv NONAME
    _ZN16ZCom_InterpolateIPfLi3EE10unpackDataEP14ZCom_BitStreambj NONAME
    _ZN16ZCom_InterpolateIPfLi3EE12getRecValPtrEh NONAME
    _ZN16ZCom_InterpolateIPfLi3EE13clearPeekDataEv NONAME
    _ZN16ZCom_InterpolateIPfLi3EE7ProcessE14eZCom_NodeRolej NONAME
    _ZN16ZCom_InterpolateIPfLi3EE8getValueEh NONAME
    _ZN16ZCom_InterpolateIPfLi3EE8packDataEP14ZCom_BitStream NONAME
    _ZN16ZCom_InterpolateIPfLi3EE8peekDataEv NONAME
    _ZN16ZCom_InterpolateIPfLi3EE8setValueES0_ NONAME
    _ZN16ZCom_InterpolateIPfLi3EE8setValueEhf NONAME
    _ZN16ZCom_InterpolateIPfLi3EE9setRecValEhf NONAME
    _ZN16ZCom_InterpolateIPfLi3EEC1ES0_P22ZCom_RSetupInterpolateIfE NONAME
    _ZN16ZCom_InterpolateIPfLi3EEC1ES0_hhhfS0_hssf NONAME
    _ZN16ZCom_InterpolateIPfLi3EEC2ES0_P22ZCom_RSetupInterpolateIfE NONAME
    _ZN16ZCom_InterpolateIPfLi3EEC2ES0_hhhfS0_hssf NONAME
    _ZN16ZCom_InterpolateIPfLi3EED0Ev NONAME
    _ZN16ZCom_InterpolateIPfLi3EED1Ev NONAME
    _ZN16ZCom_InterpolateIPfLi3EED2Ev NONAME
    _ZN16ZCom_InterpolateIPfLi4EE10checkStateEv NONAME
    _ZN16ZCom_InterpolateIPfLi4EE10unpackDataEP14ZCom_BitStreambj NONAME
    _ZN16ZCom_InterpolateIPfLi4EE12getRecValPtrEh NONAME
    _ZN16ZCom_InterpolateIPfLi4EE13clearPeekDataEv NONAME
    _ZN16ZCom_InterpolateIPfLi4EE7ProcessE14eZCom_NodeRolej NONAME
    _ZN16ZCom_InterpolateIPfLi4EE8getValueEh NONAME
    _ZN16ZCom_InterpolateIPfLi4EE8packDataEP14ZCom_BitStream NONAME
    _ZN16ZCom_InterpolateIPfLi4EE8peekDataEv NONAME
    _ZN16ZCom_InterpolateIPfLi4EE8setValueES0_ NONAME
    _ZN16ZCom_InterpolateIPfLi4EE8setValueEhf NONAME
    _ZN16ZCom_InterpolateIPfLi4EE9setRecValEhf NONAME
    _ZN16ZCom_InterpolateIPfLi4EEC1ES0_P22ZCom_RSetupInterpolateIfE NONAME
    _ZN16ZCom_InterpolateIPfLi4EEC1ES0_hhhfS0_hssf NONAME
    _ZN16ZCom_InterpolateIPfLi4EEC2ES0_P22ZCom_RSetupInterpolateIfE NONAME
    _ZN16ZCom_InterpolateIPfLi4EEC2ES0_hhhfS0_hssf NONAME
    _ZN16ZCom_InterpolateIPfLi4EED0Ev NONAME
    _ZN16ZCom_InterpolateIPfLi4EED1Ev NONAME
    _ZN16ZCom_InterpolateIPfLi4EED2Ev NONAME
    _ZN16ZCom_InterpolateIPfLi5EE10checkStateEv NONAME
    _ZN16ZCom_InterpolateIPfLi5EE10unpackDataEP14ZCom_BitStreambj NONAME
    _ZN16ZCom_InterpolateIPfLi5EE12getRecValPtrEh NONAME
    _ZN16ZCom_InterpolateIPfLi5EE13clearPeekDataEv NONAME
    _ZN16ZCom_InterpolateIPfLi5EE7ProcessE14eZCom_NodeRolej NONAME
    _ZN16ZCom_InterpolateIPfLi5EE8getValueEh NONAME
    _ZN16ZCom_InterpolateIPfLi5EE8packDataEP14ZCom_BitStream NONAME
    _ZN16ZCom_InterpolateIPfLi5EE8peekDataEv NONAME
    _ZN16ZCom_InterpolateIPfLi5EE8setValueES0_ NONAME
    _ZN16ZCom_InterpolateIPfLi5EE8setValueEhf NONAME
    _ZN16ZCom_InterpolateIPfLi5EE9setRecValEhf NONAME
    _ZN16ZCom_InterpolateIPfLi5EEC1ES0_P22ZCom_RSetupInterpolateIfE NONAME
    _ZN16ZCom_InterpolateIPfLi5EEC1ES0_hhhfS0_hssf NONAME
    _ZN16ZCom_InterpolateIPfLi5EEC2ES0_P22ZCom_RSetupInterpolateIfE NONAME
    _ZN16ZCom_InterpolateIPfLi5EEC2ES0_hhhfS0_hssf NONAME
    _ZN16ZCom_InterpolateIPfLi5EED0Ev NONAME
    _ZN16ZCom_InterpolateIPfLi5EED1Ev NONAME
    _ZN16ZCom_InterpolateIPfLi5EED2Ev NONAME
    _ZN16ZCom_InterpolateIPfLi6EE10checkStateEv NONAME
    _ZN16ZCom_InterpolateIPfLi6EE10unpackDataEP14ZCom_BitStreambj NONAME
    _ZN16ZCom_InterpolateIPfLi6EE12getRecValPtrEh NONAME
    _ZN16ZCom_InterpolateIPfLi6EE13clearPeekDataEv NONAME
    _ZN16ZCom_InterpolateIPfLi6EE7ProcessE14eZCom_NodeRolej NONAME
    _ZN16ZCom_InterpolateIPfLi6EE8getValueEh NONAME
    _ZN16ZCom_InterpolateIPfLi6EE8packDataEP14ZCom_BitStream NONAME
    _ZN16ZCom_InterpolateIPfLi6EE8peekDataEv NONAME
    _ZN16ZCom_InterpolateIPfLi6EE8setValueES0_ NONAME
    _ZN16ZCom_InterpolateIPfLi6EE8setValueEhf NONAME
    _ZN16ZCom_InterpolateIPfLi6EE9setRecValEhf NONAME
    _ZN16ZCom_InterpolateIPfLi6EEC1ES0_P22ZCom_RSetupInterpolateIfE NONAME
    _ZN16ZCom_InterpolateIPfLi6EEC1ES0_hhhfS0_hssf NONAME
    _ZN16ZCom_InterpolateIPfLi6EEC2ES0_P22ZCom_RSetupInterpolateIfE NONAME
    _ZN16ZCom_InterpolateIPfLi6EEC2ES0_hhhfS0_hssf NONAME
    _ZN16ZCom_InterpolateIPfLi6EED0Ev NONAME
    _ZN16ZCom_InterpolateIPfLi6EED1Ev NONAME
    _ZN16ZCom_InterpolateIPfLi6EED2Ev NONAME
    _ZN16ZCom_InterpolateIPfLi7EE10checkStateEv NONAME
    _ZN16ZCom_InterpolateIPfLi7EE10unpackDataEP14ZCom_BitStreambj NONAME
    _ZN16ZCom_InterpolateIPfLi7EE12getRecValPtrEh NONAME
    _ZN16ZCom_InterpolateIPfLi7EE13clearPeekDataEv NONAME
    _ZN16ZCom_InterpolateIPfLi7EE7ProcessE14eZCom_NodeRolej NONAME
    _ZN16ZCom_InterpolateIPfLi7EE8getValueEh NONAME
    _ZN16ZCom_InterpolateIPfLi7EE8packDataEP14ZCom_BitStream NONAME
    _ZN16ZCom_InterpolateIPfLi7EE8peekDataEv NONAME
    _ZN16ZCom_InterpolateIPfLi7EE8setValueES0_ NONAME
    _ZN16ZCom_InterpolateIPfLi7EE8setValueEhf NONAME
    _ZN16ZCom_InterpolateIPfLi7EE9setRecValEhf NONAME
    _ZN16ZCom_InterpolateIPfLi7EEC1ES0_P22ZCom_RSetupInterpolateIfE NONAME
    _ZN16ZCom_InterpolateIPfLi7EEC1ES0_hhhfS0_hssf NONAME
    _ZN16ZCom_InterpolateIPfLi7EEC2ES0_P22ZCom_RSetupInterpolateIfE NONAME
    _ZN16ZCom_InterpolateIPfLi7EEC2ES0_hhhfS0_hssf NONAME
    _ZN16ZCom_InterpolateIPfLi7EED0Ev NONAME
    _ZN16ZCom_InterpolateIPfLi7EED1Ev NONAME
    _ZN16ZCom_InterpolateIPfLi7EED2Ev NONAME
    _ZN16ZCom_InterpolateIPfLi8EE10checkStateEv NONAME
    _ZN16ZCom_InterpolateIPfLi8EE10unpackDataEP14ZCom_BitStreambj NONAME
    _ZN16ZCom_InterpolateIPfLi8EE12getRecValPtrEh NONAME
    _ZN16ZCom_InterpolateIPfLi8EE13clearPeekDataEv NONAME
    _ZN16ZCom_InterpolateIPfLi8EE7ProcessE14eZCom_NodeRolej NONAME
    _ZN16ZCom_InterpolateIPfLi8EE8getValueEh NONAME
    _ZN16ZCom_InterpolateIPfLi8EE8packDataEP14ZCom_BitStream NONAME
    _ZN16ZCom_InterpolateIPfLi8EE8peekDataEv NONAME
    _ZN16ZCom_InterpolateIPfLi8EE8setValueES0_ NONAME
    _ZN16ZCom_InterpolateIPfLi8EE8setValueEhf NONAME
    _ZN16ZCom_InterpolateIPfLi8EE9setRecValEhf NONAME
    _ZN16ZCom_InterpolateIPfLi8EEC1ES0_P22ZCom_RSetupInterpolateIfE NONAME
    _ZN16ZCom_InterpolateIPfLi8EEC1ES0_hhhfS0_hssf NONAME
    _ZN16ZCom_InterpolateIPfLi8EEC2ES0_P22ZCom_RSetupInterpolateIfE NONAME
    _ZN16ZCom_InterpolateIPfLi8EEC2ES0_hhhfS0_hssf NONAME
    _ZN16ZCom_InterpolateIPfLi8EED0Ev NONAME
    _ZN16ZCom_InterpolateIPfLi8EED1Ev NONAME
    _ZN16ZCom_InterpolateIPfLi8EED2Ev NONAME
    _ZN16ZCom_InterpolateIPfLi9EE10checkStateEv NONAME
    _ZN16ZCom_InterpolateIPfLi9EE10unpackDataEP14ZCom_BitStreambj NONAME
    _ZN16ZCom_InterpolateIPfLi9EE12getRecValPtrEh NONAME
    _ZN16ZCom_InterpolateIPfLi9EE13clearPeekDataEv NONAME
    _ZN16ZCom_InterpolateIPfLi9EE7ProcessE14eZCom_NodeRolej NONAME
    _ZN16ZCom_InterpolateIPfLi9EE8getValueEh NONAME
    _ZN16ZCom_InterpolateIPfLi9EE8packDataEP14ZCom_BitStream NONAME
    _ZN16ZCom_InterpolateIPfLi9EE8peekDataEv NONAME
    _ZN16ZCom_InterpolateIPfLi9EE8setValueES0_ NONAME
    _ZN16ZCom_InterpolateIPfLi9EE8setValueEhf NONAME
    _ZN16ZCom_InterpolateIPfLi9EE9setRecValEhf NONAME
    _ZN16ZCom_InterpolateIPfLi9EEC1ES0_P22ZCom_RSetupInterpolateIfE NONAME
    _ZN16ZCom_InterpolateIPfLi9EEC1ES0_hhhfS0_hssf NONAME
    _ZN16ZCom_InterpolateIPfLi9EEC2ES0_P22ZCom_RSetupInterpolateIfE NONAME
    _ZN16ZCom_InterpolateIPfLi9EEC2ES0_hhhfS0_hssf NONAME
    _ZN16ZCom_InterpolateIPfLi9EED0Ev NONAME
    _ZN16ZCom_InterpolateIPfLi9EED1Ev NONAME
    _ZN16ZCom_InterpolateIPfLi9EED2Ev NONAME
    _ZN16ZCom_InterpolateIPiLi10EE10checkStateEv NONAME
    _ZN16ZCom_InterpolateIPiLi10EE10unpackDataEP14ZCom_BitStreambj NONAME
    _ZN16ZCom_InterpolateIPiLi10EE12getRecValPtrEh NONAME
    _ZN16ZCom_InterpolateIPiLi10EE13clearPeekDataEv NONAME
    _ZN16ZCom_InterpolateIPiLi10EE7ProcessE14eZCom_NodeRolej NONAME
    _ZN16ZCom_InterpolateIPiLi10EE8getValueEh NONAME
    _ZN16ZCom_InterpolateIPiLi10EE8packDataEP14ZCom_BitStream NONAME
    _ZN16ZCom_InterpolateIPiLi10EE8peekDataEv NONAME
    _ZN16ZCom_InterpolateIPiLi10EE8setValueES0_ NONAME
    _ZN16ZCom_InterpolateIPiLi10EE8setValueEhi NONAME
    _ZN16ZCom_InterpolateIPiLi10EE9setRecValEhi NONAME
    _ZN16ZCom_InterpolateIPiLi10EEC1ES0_P22ZCom_RSetupInterpolateIiE NONAME
    _ZN16ZCom_InterpolateIPiLi10EEC1ES0_hhhiS0_hssf NONAME
    _ZN16ZCom_InterpolateIPiLi10EEC2ES0_P22ZCom_RSetupInterpolateIiE NONAME
    _ZN16ZCom_InterpolateIPiLi10EEC2ES0_hhhiS0_hssf NONAME
    _ZN16ZCom_InterpolateIPiLi10EED0Ev NONAME
    _ZN16ZCom_InterpolateIPiLi10EED1Ev NONAME
    _ZN16ZCom_InterpolateIPiLi10EED2Ev NONAME
    _ZN16ZCom_InterpolateIPiLi11EE10checkStateEv NONAME
    _ZN16ZCom_InterpolateIPiLi11EE10unpackDataEP14ZCom_BitStreambj NONAME
    _ZN16ZCom_InterpolateIPiLi11EE12getRecValPtrEh NONAME
    _ZN16ZCom_InterpolateIPiLi11EE13clearPeekDataEv NONAME
    _ZN16ZCom_InterpolateIPiLi11EE7ProcessE14eZCom_NodeRolej NONAME
    _ZN16ZCom_InterpolateIPiLi11EE8getValueEh NONAME
    _ZN16ZCom_InterpolateIPiLi11EE8packDataEP14ZCom_BitStream NONAME
    _ZN16ZCom_InterpolateIPiLi11EE8peekDataEv NONAME
    _ZN16ZCom_InterpolateIPiLi11EE8setValueES0_ NONAME
    _ZN16ZCom_InterpolateIPiLi11EE8setValueEhi NONAME
    _ZN16ZCom_InterpolateIPiLi11EE9setRecValEhi NONAME
    _ZN16ZCom_InterpolateIPiLi11EEC1ES0_P22ZCom_RSetupInterpolateIiE NONAME
    _ZN16ZCom_InterpolateIPiLi11EEC1ES0_hhhiS0_hssf NONAME
    _ZN16ZCom_InterpolateIPiLi11EEC2ES0_P22ZCom_RSetupInterpolateIiE NONAME
    _ZN16ZCom_InterpolateIPiLi11EEC2ES0_hhhiS0_hssf NONAME
    _ZN16ZCom_InterpolateIPiLi11EED0Ev NONAME
    _ZN16ZCom_InterpolateIPiLi11EED1Ev NONAME
    _ZN16ZCom_InterpolateIPiLi11EED2Ev NONAME
    _ZN16ZCom_InterpolateIPiLi12EE10checkStateEv NONAME
    _ZN16ZCom_InterpolateIPiLi12EE10unpackDataEP14ZCom_BitStreambj NONAME
    _ZN16ZCom_InterpolateIPiLi12EE12getRecValPtrEh NONAME
    _ZN16ZCom_InterpolateIPiLi12EE13clearPeekDataEv NONAME
    _ZN16ZCom_InterpolateIPiLi12EE7ProcessE14eZCom_NodeRolej NONAME
    _ZN16ZCom_InterpolateIPiLi12EE8getValueEh NONAME
    _ZN16ZCom_InterpolateIPiLi12EE8packDataEP14ZCom_BitStream NONAME
    _ZN16ZCom_InterpolateIPiLi12EE8peekDataEv NONAME
    _ZN16ZCom_InterpolateIPiLi12EE8setValueES0_ NONAME
    _ZN16ZCom_InterpolateIPiLi12EE8setValueEhi NONAME
    _ZN16ZCom_InterpolateIPiLi12EE9setRecValEhi NONAME
    _ZN16ZCom_InterpolateIPiLi12EEC1ES0_P22ZCom_RSetupInterpolateIiE NONAME
    _ZN16ZCom_InterpolateIPiLi12EEC1ES0_hhhiS0_hssf NONAME
    _ZN16ZCom_InterpolateIPiLi12EEC2ES0_P22ZCom_RSetupInterpolateIiE NONAME
    _ZN16ZCom_InterpolateIPiLi12EEC2ES0_hhhiS0_hssf NONAME
    _ZN16ZCom_InterpolateIPiLi12EED0Ev NONAME
    _ZN16ZCom_InterpolateIPiLi12EED1Ev NONAME
    _ZN16ZCom_InterpolateIPiLi12EED2Ev NONAME
    _ZN16ZCom_InterpolateIPiLi1EE10checkStateEv NONAME
    _ZN16ZCom_InterpolateIPiLi1EE10unpackDataEP14ZCom_BitStreambj NONAME
    _ZN16ZCom_InterpolateIPiLi1EE12getRecValPtrEh NONAME
    _ZN16ZCom_InterpolateIPiLi1EE13clearPeekDataEv NONAME
    _ZN16ZCom_InterpolateIPiLi1EE7ProcessE14eZCom_NodeRolej NONAME
    _ZN16ZCom_InterpolateIPiLi1EE8getValueEh NONAME
    _ZN16ZCom_InterpolateIPiLi1EE8packDataEP14ZCom_BitStream NONAME
    _ZN16ZCom_InterpolateIPiLi1EE8peekDataEv NONAME
    _ZN16ZCom_InterpolateIPiLi1EE8setValueES0_ NONAME
    _ZN16ZCom_InterpolateIPiLi1EE8setValueEhi NONAME
    _ZN16ZCom_InterpolateIPiLi1EE9setRecValEhi NONAME
    _ZN16ZCom_InterpolateIPiLi1EEC1ES0_P22ZCom_RSetupInterpolateIiE NONAME
    _ZN16ZCom_InterpolateIPiLi1EEC1ES0_hhhiS0_hssf NONAME
    _ZN16ZCom_InterpolateIPiLi1EEC2ES0_P22ZCom_RSetupInterpolateIiE NONAME
    _ZN16ZCom_InterpolateIPiLi1EEC2ES0_hhhiS0_hssf NONAME
    _ZN16ZCom_InterpolateIPiLi1EED0Ev NONAME
    _ZN16ZCom_InterpolateIPiLi1EED1Ev NONAME
    _ZN16ZCom_InterpolateIPiLi1EED2Ev NONAME
    _ZN16ZCom_InterpolateIPiLi2EE10checkStateEv NONAME
    _ZN16ZCom_InterpolateIPiLi2EE10unpackDataEP14ZCom_BitStreambj NONAME
    _ZN16ZCom_InterpolateIPiLi2EE12getRecValPtrEh NONAME
    _ZN16ZCom_InterpolateIPiLi2EE13clearPeekDataEv NONAME
    _ZN16ZCom_InterpolateIPiLi2EE7ProcessE14eZCom_NodeRolej NONAME
    _ZN16ZCom_InterpolateIPiLi2EE8getValueEh NONAME
    _ZN16ZCom_InterpolateIPiLi2EE8packDataEP14ZCom_BitStream NONAME
    _ZN16ZCom_InterpolateIPiLi2EE8peekDataEv NONAME
    _ZN16ZCom_InterpolateIPiLi2EE8setValueES0_ NONAME
    _ZN16ZCom_InterpolateIPiLi2EE8setValueEhi NONAME
    _ZN16ZCom_InterpolateIPiLi2EE9setRecValEhi NONAME
    _ZN16ZCom_InterpolateIPiLi2EEC1ES0_P22ZCom_RSetupInterpolateIiE NONAME
    _ZN16ZCom_InterpolateIPiLi2EEC1ES0_hhhiS0_hssf NONAME
    _ZN16ZCom_InterpolateIPiLi2EEC2ES0_P22ZCom_RSetupInterpolateIiE NONAME
    _ZN16ZCom_InterpolateIPiLi2EEC2ES0_hhhiS0_hssf NONAME
    _ZN16ZCom_InterpolateIPiLi2EED0Ev NONAME
    _ZN16ZCom_InterpolateIPiLi2EED1Ev NONAME
    _ZN16ZCom_InterpolateIPiLi2EED2Ev NONAME
    _ZN16ZCom_InterpolateIPiLi3EE10checkStateEv NONAME
    _ZN16ZCom_InterpolateIPiLi3EE10unpackDataEP14ZCom_BitStreambj NONAME
    _ZN16ZCom_InterpolateIPiLi3EE12getRecValPtrEh NONAME
    _ZN16ZCom_InterpolateIPiLi3EE13clearPeekDataEv NONAME
    _ZN16ZCom_InterpolateIPiLi3EE7ProcessE14eZCom_NodeRolej NONAME
    _ZN16ZCom_InterpolateIPiLi3EE8getValueEh NONAME
    _ZN16ZCom_InterpolateIPiLi3EE8packDataEP14ZCom_BitStream NONAME
    _ZN16ZCom_InterpolateIPiLi3EE8peekDataEv NONAME
    _ZN16ZCom_InterpolateIPiLi3EE8setValueES0_ NONAME
    _ZN16ZCom_InterpolateIPiLi3EE8setValueEhi NONAME
    _ZN16ZCom_InterpolateIPiLi3EE9setRecValEhi NONAME
    _ZN16ZCom_InterpolateIPiLi3EEC1ES0_P22ZCom_RSetupInterpolateIiE NONAME
    _ZN16ZCom_InterpolateIPiLi3EEC1ES0_hhhiS0_hssf NONAME
    _ZN16ZCom_InterpolateIPiLi3EEC2ES0_P22ZCom_RSetupInterpolateIiE NONAME
    _ZN16ZCom_InterpolateIPiLi3EEC2ES0_hhhiS0_hssf NONAME
    _ZN16ZCom_InterpolateIPiLi3EED0Ev NONAME
    _ZN16ZCom_InterpolateIPiLi3EED1Ev NONAME
    _ZN16ZCom_InterpolateIPiLi3EED2Ev NONAME
    _ZN16ZCom_InterpolateIPiLi4EE10checkStateEv NONAME
    _ZN16ZCom_InterpolateIPiLi4EE10unpackDataEP14ZCom_BitStreambj NONAME
    _ZN16ZCom_InterpolateIPiLi4EE12getRecValPtrEh NONAME
    _ZN16ZCom_InterpolateIPiLi4EE13clearPeekDataEv NONAME
    _ZN16ZCom_InterpolateIPiLi4EE7ProcessE14eZCom_NodeRolej NONAME
    _ZN16ZCom_InterpolateIPiLi4EE8getValueEh NONAME
    _ZN16ZCom_InterpolateIPiLi4EE8packDataEP14ZCom_BitStream NONAME
    _ZN16ZCom_InterpolateIPiLi4EE8peekDataEv NONAME
    _ZN16ZCom_InterpolateIPiLi4EE8setValueES0_ NONAME
    _ZN16ZCom_InterpolateIPiLi4EE8setValueEhi NONAME
    _ZN16ZCom_InterpolateIPiLi4EE9setRecValEhi NONAME
    _ZN16ZCom_InterpolateIPiLi4EEC1ES0_P22ZCom_RSetupInterpolateIiE NONAME
    _ZN16ZCom_InterpolateIPiLi4EEC1ES0_hhhiS0_hssf NONAME
    _ZN16ZCom_InterpolateIPiLi4EEC2ES0_P22ZCom_RSetupInterpolateIiE NONAME
    _ZN16ZCom_InterpolateIPiLi4EEC2ES0_hhhiS0_hssf NONAME
    _ZN16ZCom_InterpolateIPiLi4EED0Ev NONAME
    _ZN16ZCom_InterpolateIPiLi4EED1Ev NONAME
    _ZN16ZCom_InterpolateIPiLi4EED2Ev NONAME
    _ZN16ZCom_InterpolateIPiLi5EE10checkStateEv NONAME
    _ZN16ZCom_InterpolateIPiLi5EE10unpackDataEP14ZCom_BitStreambj NONAME
    _ZN16ZCom_InterpolateIPiLi5EE12getRecValPtrEh NONAME
    _ZN16ZCom_InterpolateIPiLi5EE13clearPeekDataEv NONAME
    _ZN16ZCom_InterpolateIPiLi5EE7ProcessE14eZCom_NodeRolej NONAME
    _ZN16ZCom_InterpolateIPiLi5EE8getValueEh NONAME
    _ZN16ZCom_InterpolateIPiLi5EE8packDataEP14ZCom_BitStream NONAME
    _ZN16ZCom_InterpolateIPiLi5EE8peekDataEv NONAME
    _ZN16ZCom_InterpolateIPiLi5EE8setValueES0_ NONAME
    _ZN16ZCom_InterpolateIPiLi5EE8setValueEhi NONAME
    _ZN16ZCom_InterpolateIPiLi5EE9setRecValEhi NONAME
    _ZN16ZCom_InterpolateIPiLi5EEC1ES0_P22ZCom_RSetupInterpolateIiE NONAME
    _ZN16ZCom_InterpolateIPiLi5EEC1ES0_hhhiS0_hssf NONAME
    _ZN16ZCom_InterpolateIPiLi5EEC2ES0_P22ZCom_RSetupInterpolateIiE NONAME
    _ZN16ZCom_InterpolateIPiLi5EEC2ES0_hhhiS0_hssf NONAME
    _ZN16ZCom_InterpolateIPiLi5EED0Ev NONAME
    _ZN16ZCom_InterpolateIPiLi5EED1Ev NONAME
    _ZN16ZCom_InterpolateIPiLi5EED2Ev NONAME
    _ZN16ZCom_InterpolateIPiLi6EE10checkStateEv NONAME
    _ZN16ZCom_InterpolateIPiLi6EE10unpackDataEP14ZCom_BitStreambj NONAME
    _ZN16ZCom_InterpolateIPiLi6EE12getRecValPtrEh NONAME
    _ZN16ZCom_InterpolateIPiLi6EE13clearPeekDataEv NONAME
    _ZN16ZCom_InterpolateIPiLi6EE7ProcessE14eZCom_NodeRolej NONAME
    _ZN16ZCom_InterpolateIPiLi6EE8getValueEh NONAME
    _ZN16ZCom_InterpolateIPiLi6EE8packDataEP14ZCom_BitStream NONAME
    _ZN16ZCom_InterpolateIPiLi6EE8peekDataEv NONAME
    _ZN16ZCom_InterpolateIPiLi6EE8setValueES0_ NONAME
    _ZN16ZCom_InterpolateIPiLi6EE8setValueEhi NONAME
    _ZN16ZCom_InterpolateIPiLi6EE9setRecValEhi NONAME
    _ZN16ZCom_InterpolateIPiLi6EEC1ES0_P22ZCom_RSetupInterpolateIiE NONAME
    _ZN16ZCom_InterpolateIPiLi6EEC1ES0_hhhiS0_hssf NONAME
    _ZN16ZCom_InterpolateIPiLi6EEC2ES0_P22ZCom_RSetupInterpolateIiE NONAME
    _ZN16ZCom_InterpolateIPiLi6EEC2ES0_hhhiS0_hssf NONAME
    _ZN16ZCom_InterpolateIPiLi6EED0Ev NONAME
    _ZN16ZCom_InterpolateIPiLi6EED1Ev NONAME
    _ZN16ZCom_InterpolateIPiLi6EED2Ev NONAME
    _ZN16ZCom_InterpolateIPiLi7EE10checkStateEv NONAME
    _ZN16ZCom_InterpolateIPiLi7EE10unpackDataEP14ZCom_BitStreambj NONAME
    _ZN16ZCom_InterpolateIPiLi7EE12getRecValPtrEh NONAME
    _ZN16ZCom_InterpolateIPiLi7EE13clearPeekDataEv NONAME
    _ZN16ZCom_InterpolateIPiLi7EE7ProcessE14eZCom_NodeRolej NONAME
    _ZN16ZCom_InterpolateIPiLi7EE8getValueEh NONAME
    _ZN16ZCom_InterpolateIPiLi7EE8packDataEP14ZCom_BitStream NONAME
    _ZN16ZCom_InterpolateIPiLi7EE8peekDataEv NONAME
    _ZN16ZCom_InterpolateIPiLi7EE8setValueES0_ NONAME
    _ZN16ZCom_InterpolateIPiLi7EE8setValueEhi NONAME
    _ZN16ZCom_InterpolateIPiLi7EE9setRecValEhi NONAME
    _ZN16ZCom_InterpolateIPiLi7EEC1ES0_P22ZCom_RSetupInterpolateIiE NONAME
    _ZN16ZCom_InterpolateIPiLi7EEC1ES0_hhhiS0_hssf NONAME
    _ZN16ZCom_InterpolateIPiLi7EEC2ES0_P22ZCom_RSetupInterpolateIiE NONAME
    _ZN16ZCom_InterpolateIPiLi7EEC2ES0_hhhiS0_hssf NONAME
    _ZN16ZCom_InterpolateIPiLi7EED0Ev NONAME
    _ZN16ZCom_InterpolateIPiLi7EED1Ev NONAME
    _ZN16ZCom_InterpolateIPiLi7EED2Ev NONAME
    _ZN16ZCom_InterpolateIPiLi8EE10checkStateEv NONAME
    _ZN16ZCom_InterpolateIPiLi8EE10unpackDataEP14ZCom_BitStreambj NONAME
    _ZN16ZCom_InterpolateIPiLi8EE12getRecValPtrEh NONAME
    _ZN16ZCom_InterpolateIPiLi8EE13clearPeekDataEv NONAME
    _ZN16ZCom_InterpolateIPiLi8EE7ProcessE14eZCom_NodeRolej NONAME
    _ZN16ZCom_InterpolateIPiLi8EE8getValueEh NONAME
    _ZN16ZCom_InterpolateIPiLi8EE8packDataEP14ZCom_BitStream NONAME
    _ZN16ZCom_InterpolateIPiLi8EE8peekDataEv NONAME
    _ZN16ZCom_InterpolateIPiLi8EE8setValueES0_ NONAME
    _ZN16ZCom_InterpolateIPiLi8EE8setValueEhi NONAME
    _ZN16ZCom_InterpolateIPiLi8EE9setRecValEhi NONAME
    _ZN16ZCom_InterpolateIPiLi8EEC1ES0_P22ZCom_RSetupInterpolateIiE NONAME
    _ZN16ZCom_InterpolateIPiLi8EEC1ES0_hhhiS0_hssf NONAME
    _ZN16ZCom_InterpolateIPiLi8EEC2ES0_P22ZCom_RSetupInterpolateIiE NONAME
    _ZN16ZCom_InterpolateIPiLi8EEC2ES0_hhhiS0_hssf NONAME
    _ZN16ZCom_InterpolateIPiLi8EED0Ev NONAME
    _ZN16ZCom_InterpolateIPiLi8EED1Ev NONAME
    _ZN16ZCom_InterpolateIPiLi8EED2Ev NONAME
    _ZN16ZCom_InterpolateIPiLi9EE10checkStateEv NONAME
    _ZN16ZCom_InterpolateIPiLi9EE10unpackDataEP14ZCom_BitStreambj NONAME
    _ZN16ZCom_InterpolateIPiLi9EE12getRecValPtrEh NONAME
    _ZN16ZCom_InterpolateIPiLi9EE13clearPeekDataEv NONAME
    _ZN16ZCom_InterpolateIPiLi9EE7ProcessE14eZCom_NodeRolej NONAME
    _ZN16ZCom_InterpolateIPiLi9EE8getValueEh NONAME
    _ZN16ZCom_InterpolateIPiLi9EE8packDataEP14ZCom_BitStream NONAME
    _ZN16ZCom_InterpolateIPiLi9EE8peekDataEv NONAME
    _ZN16ZCom_InterpolateIPiLi9EE8setValueES0_ NONAME
    _ZN16ZCom_InterpolateIPiLi9EE8setValueEhi NONAME
    _ZN16ZCom_InterpolateIPiLi9EE9setRecValEhi NONAME
    _ZN16ZCom_InterpolateIPiLi9EEC1ES0_P22ZCom_RSetupInterpolateIiE NONAME
    _ZN16ZCom_InterpolateIPiLi9EEC1ES0_hhhiS0_hssf NONAME
    _ZN16ZCom_InterpolateIPiLi9EEC2ES0_P22ZCom_RSetupInterpolateIiE NONAME
    _ZN16ZCom_InterpolateIPiLi9EEC2ES0_hhhiS0_hssf NONAME
    _ZN16ZCom_InterpolateIPiLi9EED0Ev NONAME
    _ZN16ZCom_InterpolateIPiLi9EED1Ev NONAME
    _ZN16ZCom_InterpolateIPiLi9EED2Ev NONAME
    _ZN16ZCom_InterpolateIPjLi10EE10checkStateEv NONAME
    _ZN16ZCom_InterpolateIPjLi10EE10unpackDataEP14ZCom_BitStreambj NONAME
    _ZN16ZCom_InterpolateIPjLi10EE12getRecValPtrEh NONAME
    _ZN16ZCom_InterpolateIPjLi10EE13clearPeekDataEv NONAME
    _ZN16ZCom_InterpolateIPjLi10EE7ProcessE14eZCom_NodeRolej NONAME
    _ZN16ZCom_InterpolateIPjLi10EE8getValueEh NONAME
    _ZN16ZCom_InterpolateIPjLi10EE8packDataEP14ZCom_BitStream NONAME
    _ZN16ZCom_InterpolateIPjLi10EE8peekDataEv NONAME
    _ZN16ZCom_InterpolateIPjLi10EE8setValueES0_ NONAME
    _ZN16ZCom_InterpolateIPjLi10EE8setValueEhj NONAME
    _ZN16ZCom_InterpolateIPjLi10EE9setRecValEhj NONAME
    _ZN16ZCom_InterpolateIPjLi10EEC1ES0_P22ZCom_RSetupInterpolateIjE NONAME
    _ZN16ZCom_InterpolateIPjLi10EEC1ES0_hhhjS0_hssf NONAME
    _ZN16ZCom_InterpolateIPjLi10EEC2ES0_P22ZCom_RSetupInterpolateIjE NONAME
    _ZN16ZCom_InterpolateIPjLi10EEC2ES0_hhhjS0_hssf NONAME
    _ZN16ZCom_InterpolateIPjLi10EED0Ev NONAME
    _ZN16ZCom_InterpolateIPjLi10EED1Ev NONAME
    _ZN16ZCom_InterpolateIPjLi10EED2Ev NONAME
    _ZN16ZCom_InterpolateIPjLi11EE10checkStateEv NONAME
    _ZN16ZCom_InterpolateIPjLi11EE10unpackDataEP14ZCom_BitStreambj NONAME
    _ZN16ZCom_InterpolateIPjLi11EE12getRecValPtrEh NONAME
    _ZN16ZCom_InterpolateIPjLi11EE13clearPeekDataEv NONAME
    _ZN16ZCom_InterpolateIPjLi11EE7ProcessE14eZCom_NodeRolej NONAME
    _ZN16ZCom_InterpolateIPjLi11EE8getValueEh NONAME
    _ZN16ZCom_InterpolateIPjLi11EE8packDataEP14ZCom_BitStream NONAME
    _ZN16ZCom_InterpolateIPjLi11EE8peekDataEv NONAME
    _ZN16ZCom_InterpolateIPjLi11EE8setValueES0_ NONAME
    _ZN16ZCom_InterpolateIPjLi11EE8setValueEhj NONAME
    _ZN16ZCom_InterpolateIPjLi11EE9setRecValEhj NONAME
    _ZN16ZCom_InterpolateIPjLi11EEC1ES0_P22ZCom_RSetupInterpolateIjE NONAME
    _ZN16ZCom_InterpolateIPjLi11EEC1ES0_hhhjS0_hssf NONAME
    _ZN16ZCom_InterpolateIPjLi11EEC2ES0_P22ZCom_RSetupInterpolateIjE NONAME
    _ZN16ZCom_InterpolateIPjLi11EEC2ES0_hhhjS0_hssf NONAME
    _ZN16ZCom_InterpolateIPjLi11EED0Ev NONAME
    _ZN16ZCom_InterpolateIPjLi11EED1Ev NONAME
    _ZN16ZCom_InterpolateIPjLi11EED2Ev NONAME
    _ZN16ZCom_InterpolateIPjLi12EE10checkStateEv NONAME
    _ZN16ZCom_InterpolateIPjLi12EE10unpackDataEP14ZCom_BitStreambj NONAME
    _ZN16ZCom_InterpolateIPjLi12EE12getRecValPtrEh NONAME
    _ZN16ZCom_InterpolateIPjLi12EE13clearPeekDataEv NONAME
    _ZN16ZCom_InterpolateIPjLi12EE7ProcessE14eZCom_NodeRolej NONAME
    _ZN16ZCom_InterpolateIPjLi12EE8getValueEh NONAME
    _ZN16ZCom_InterpolateIPjLi12EE8packDataEP14ZCom_BitStream NONAME
    _ZN16ZCom_InterpolateIPjLi12EE8peekDataEv NONAME
    _ZN16ZCom_InterpolateIPjLi12EE8setValueES0_ NONAME
    _ZN16ZCom_InterpolateIPjLi12EE8setValueEhj NONAME
    _ZN16ZCom_InterpolateIPjLi12EE9setRecValEhj NONAME
    _ZN16ZCom_InterpolateIPjLi12EEC1ES0_P22ZCom_RSetupInterpolateIjE NONAME
    _ZN16ZCom_InterpolateIPjLi12EEC1ES0_hhhjS0_hssf NONAME
    _ZN16ZCom_InterpolateIPjLi12EEC2ES0_P22ZCom_RSetupInterpolateIjE NONAME
    _ZN16ZCom_InterpolateIPjLi12EEC2ES0_hhhjS0_hssf NONAME
    _ZN16ZCom_InterpolateIPjLi12EED0Ev NONAME
    _ZN16ZCom_InterpolateIPjLi12EED1Ev NONAME
    _ZN16ZCom_InterpolateIPjLi12EED2Ev NONAME
    _ZN16ZCom_InterpolateIPjLi1EE10checkStateEv NONAME
    _ZN16ZCom_InterpolateIPjLi1EE10unpackDataEP14ZCom_BitStreambj NONAME
    _ZN16ZCom_InterpolateIPjLi1EE12getRecValPtrEh NONAME
    _ZN16ZCom_InterpolateIPjLi1EE13clearPeekDataEv NONAME
    _ZN16ZCom_InterpolateIPjLi1EE7ProcessE14eZCom_NodeRolej NONAME
    _ZN16ZCom_InterpolateIPjLi1EE8getValueEh NONAME
    _ZN16ZCom_InterpolateIPjLi1EE8packDataEP14ZCom_BitStream NONAME
    _ZN16ZCom_InterpolateIPjLi1EE8peekDataEv NONAME
    _ZN16ZCom_InterpolateIPjLi1EE8setValueES0_ NONAME
    _ZN16ZCom_InterpolateIPjLi1EE8setValueEhj NONAME
    _ZN16ZCom_InterpolateIPjLi1EE9setRecValEhj NONAME
    _ZN16ZCom_InterpolateIPjLi1EEC1ES0_P22ZCom_RSetupInterpolateIjE NONAME
    _ZN16ZCom_InterpolateIPjLi1EEC1ES0_hhhjS0_hssf NONAME
    _ZN16ZCom_InterpolateIPjLi1EEC2ES0_P22ZCom_RSetupInterpolateIjE NONAME
    _ZN16ZCom_InterpolateIPjLi1EEC2ES0_hhhjS0_hssf NONAME
    _ZN16ZCom_InterpolateIPjLi1EED0Ev NONAME
    _ZN16ZCom_InterpolateIPjLi1EED1Ev NONAME
    _ZN16ZCom_InterpolateIPjLi1EED2Ev NONAME
    _ZN16ZCom_InterpolateIPjLi2EE10checkStateEv NONAME
    _ZN16ZCom_InterpolateIPjLi2EE10unpackDataEP14ZCom_BitStreambj NONAME
    _ZN16ZCom_InterpolateIPjLi2EE12getRecValPtrEh NONAME
    _ZN16ZCom_InterpolateIPjLi2EE13clearPeekDataEv NONAME
    _ZN16ZCom_InterpolateIPjLi2EE7ProcessE14eZCom_NodeRolej NONAME
    _ZN16ZCom_InterpolateIPjLi2EE8getValueEh NONAME
    _ZN16ZCom_InterpolateIPjLi2EE8packDataEP14ZCom_BitStream NONAME
    _ZN16ZCom_InterpolateIPjLi2EE8peekDataEv NONAME
    _ZN16ZCom_InterpolateIPjLi2EE8setValueES0_ NONAME
    _ZN16ZCom_InterpolateIPjLi2EE8setValueEhj NONAME
    _ZN16ZCom_InterpolateIPjLi2EE9setRecValEhj NONAME
    _ZN16ZCom_InterpolateIPjLi2EEC1ES0_P22ZCom_RSetupInterpolateIjE NONAME
    _ZN16ZCom_InterpolateIPjLi2EEC1ES0_hhhjS0_hssf NONAME
    _ZN16ZCom_InterpolateIPjLi2EEC2ES0_P22ZCom_RSetupInterpolateIjE NONAME
    _ZN16ZCom_InterpolateIPjLi2EEC2ES0_hhhjS0_hssf NONAME
    _ZN16ZCom_InterpolateIPjLi2EED0Ev NONAME
    _ZN16ZCom_InterpolateIPjLi2EED1Ev NONAME
    _ZN16ZCom_InterpolateIPjLi2EED2Ev NONAME
    _ZN16ZCom_InterpolateIPjLi3EE10checkStateEv NONAME
    _ZN16ZCom_InterpolateIPjLi3EE10unpackDataEP14ZCom_BitStreambj NONAME
    _ZN16ZCom_InterpolateIPjLi3EE12getRecValPtrEh NONAME
    _ZN16ZCom_InterpolateIPjLi3EE13clearPeekDataEv NONAME
    _ZN16ZCom_InterpolateIPjLi3EE7ProcessE14eZCom_NodeRolej NONAME
    _ZN16ZCom_InterpolateIPjLi3EE8getValueEh NONAME
    _ZN16ZCom_InterpolateIPjLi3EE8packDataEP14ZCom_BitStream NONAME
    _ZN16ZCom_InterpolateIPjLi3EE8peekDataEv NONAME
    _ZN16ZCom_InterpolateIPjLi3EE8setValueES0_ NONAME
    _ZN16ZCom_InterpolateIPjLi3EE8setValueEhj NONAME
    _ZN16ZCom_InterpolateIPjLi3EE9setRecValEhj NONAME
    _ZN16ZCom_InterpolateIPjLi3EEC1ES0_P22ZCom_RSetupInterpolateIjE NONAME
    _ZN16ZCom_InterpolateIPjLi3EEC1ES0_hhhjS0_hssf NONAME
    _ZN16ZCom_InterpolateIPjLi3EEC2ES0_P22ZCom_RSetupInterpolateIjE NONAME
    _ZN16ZCom_InterpolateIPjLi3EEC2ES0_hhhjS0_hssf NONAME
    _ZN16ZCom_InterpolateIPjLi3EED0Ev NONAME
    _ZN16ZCom_InterpolateIPjLi3EED1Ev NONAME
    _ZN16ZCom_InterpolateIPjLi3EED2Ev NONAME
    _ZN16ZCom_InterpolateIPjLi4EE10checkStateEv NONAME
    _ZN16ZCom_InterpolateIPjLi4EE10unpackDataEP14ZCom_BitStreambj NONAME
    _ZN16ZCom_InterpolateIPjLi4EE12getRecValPtrEh NONAME
    _ZN16ZCom_InterpolateIPjLi4EE13clearPeekDataEv NONAME
    _ZN16ZCom_InterpolateIPjLi4EE7ProcessE14eZCom_NodeRolej NONAME
    _ZN16ZCom_InterpolateIPjLi4EE8getValueEh NONAME
    _ZN16ZCom_InterpolateIPjLi4EE8packDataEP14ZCom_BitStream NONAME
    _ZN16ZCom_InterpolateIPjLi4EE8peekDataEv NONAME
    _ZN16ZCom_InterpolateIPjLi4EE8setValueES0_ NONAME
    _ZN16ZCom_InterpolateIPjLi4EE8setValueEhj NONAME
    _ZN16ZCom_InterpolateIPjLi4EE9setRecValEhj NONAME
    _ZN16ZCom_InterpolateIPjLi4EEC1ES0_P22ZCom_RSetupInterpolateIjE NONAME
    _ZN16ZCom_InterpolateIPjLi4EEC1ES0_hhhjS0_hssf NONAME
    _ZN16ZCom_InterpolateIPjLi4EEC2ES0_P22ZCom_RSetupInterpolateIjE NONAME
    _ZN16ZCom_InterpolateIPjLi4EEC2ES0_hhhjS0_hssf NONAME
    _ZN16ZCom_InterpolateIPjLi4EED0Ev NONAME
    _ZN16ZCom_InterpolateIPjLi4EED1Ev NONAME
    _ZN16ZCom_InterpolateIPjLi4EED2Ev NONAME
    _ZN16ZCom_InterpolateIPjLi5EE10checkStateEv NONAME
    _ZN16ZCom_InterpolateIPjLi5EE10unpackDataEP14ZCom_BitStreambj NONAME
    _ZN16ZCom_InterpolateIPjLi5EE12getRecValPtrEh NONAME
    _ZN16ZCom_InterpolateIPjLi5EE13clearPeekDataEv NONAME
    _ZN16ZCom_InterpolateIPjLi5EE7ProcessE14eZCom_NodeRolej NONAME
    _ZN16ZCom_InterpolateIPjLi5EE8getValueEh NONAME
    _ZN16ZCom_InterpolateIPjLi5EE8packDataEP14ZCom_BitStream NONAME
    _ZN16ZCom_InterpolateIPjLi5EE8peekDataEv NONAME
    _ZN16ZCom_InterpolateIPjLi5EE8setValueES0_ NONAME
    _ZN16ZCom_InterpolateIPjLi5EE8setValueEhj NONAME
    _ZN16ZCom_InterpolateIPjLi5EE9setRecValEhj NONAME
    _ZN16ZCom_InterpolateIPjLi5EEC1ES0_P22ZCom_RSetupInterpolateIjE NONAME
    _ZN16ZCom_InterpolateIPjLi5EEC1ES0_hhhjS0_hssf NONAME
    _ZN16ZCom_InterpolateIPjLi5EEC2ES0_P22ZCom_RSetupInterpolateIjE NONAME
    _ZN16ZCom_InterpolateIPjLi5EEC2ES0_hhhjS0_hssf NONAME
    _ZN16ZCom_InterpolateIPjLi5EED0Ev NONAME
    _ZN16ZCom_InterpolateIPjLi5EED1Ev NONAME
    _ZN16ZCom_InterpolateIPjLi5EED2Ev NONAME
    _ZN16ZCom_InterpolateIPjLi6EE10checkStateEv NONAME
    _ZN16ZCom_InterpolateIPjLi6EE10unpackDataEP14ZCom_BitStreambj NONAME
    _ZN16ZCom_InterpolateIPjLi6EE12getRecValPtrEh NONAME
    _ZN16ZCom_InterpolateIPjLi6EE13clearPeekDataEv NONAME
    _ZN16ZCom_InterpolateIPjLi6EE7ProcessE14eZCom_NodeRolej NONAME
    _ZN16ZCom_InterpolateIPjLi6EE8getValueEh NONAME
    _ZN16ZCom_InterpolateIPjLi6EE8packDataEP14ZCom_BitStream NONAME
    _ZN16ZCom_InterpolateIPjLi6EE8peekDataEv NONAME
    _ZN16ZCom_InterpolateIPjLi6EE8setValueES0_ NONAME
    _ZN16ZCom_InterpolateIPjLi6EE8setValueEhj NONAME
    _ZN16ZCom_InterpolateIPjLi6EE9setRecValEhj NONAME
    _ZN16ZCom_InterpolateIPjLi6EEC1ES0_P22ZCom_RSetupInterpolateIjE NONAME
    _ZN16ZCom_InterpolateIPjLi6EEC1ES0_hhhjS0_hssf NONAME
    _ZN16ZCom_InterpolateIPjLi6EEC2ES0_P22ZCom_RSetupInterpolateIjE NONAME
    _ZN16ZCom_InterpolateIPjLi6EEC2ES0_hhhjS0_hssf NONAME
    _ZN16ZCom_InterpolateIPjLi6EED0Ev NONAME
    _ZN16ZCom_InterpolateIPjLi6EED1Ev NONAME
    _ZN16ZCom_InterpolateIPjLi6EED2Ev NONAME
    _ZN16ZCom_InterpolateIPjLi7EE10checkStateEv NONAME
    _ZN16ZCom_InterpolateIPjLi7EE10unpackDataEP14ZCom_BitStreambj NONAME
    _ZN16ZCom_InterpolateIPjLi7EE12getRecValPtrEh NONAME
    _ZN16ZCom_InterpolateIPjLi7EE13clearPeekDataEv NONAME
    _ZN16ZCom_InterpolateIPjLi7EE7ProcessE14eZCom_NodeRolej NONAME
    _ZN16ZCom_InterpolateIPjLi7EE8getValueEh NONAME
    _ZN16ZCom_InterpolateIPjLi7EE8packDataEP14ZCom_BitStream NONAME
    _ZN16ZCom_InterpolateIPjLi7EE8peekDataEv NONAME
    _ZN16ZCom_InterpolateIPjLi7EE8setValueES0_ NONAME
    _ZN16ZCom_InterpolateIPjLi7EE8setValueEhj NONAME
    _ZN16ZCom_InterpolateIPjLi7EE9setRecValEhj NONAME
    _ZN16ZCom_InterpolateIPjLi7EEC1ES0_P22ZCom_RSetupInterpolateIjE NONAME
    _ZN16ZCom_InterpolateIPjLi7EEC1ES0_hhhjS0_hssf NONAME
    _ZN16ZCom_InterpolateIPjLi7EEC2ES0_P22ZCom_RSetupInterpolateIjE NONAME
    _ZN16ZCom_InterpolateIPjLi7EEC2ES0_hhhjS0_hssf NONAME
    _ZN16ZCom_InterpolateIPjLi7EED0Ev NONAME
    _ZN16ZCom_InterpolateIPjLi7EED1Ev NONAME
    _ZN16ZCom_InterpolateIPjLi7EED2Ev NONAME
    _ZN16ZCom_InterpolateIPjLi8EE10checkStateEv NONAME
    _ZN16ZCom_InterpolateIPjLi8EE10unpackDataEP14ZCom_BitStreambj NONAME
    _ZN16ZCom_InterpolateIPjLi8EE12getRecValPtrEh NONAME
    _ZN16ZCom_InterpolateIPjLi8EE13clearPeekDataEv NONAME
    _ZN16ZCom_InterpolateIPjLi8EE7ProcessE14eZCom_NodeRolej NONAME
    _ZN16ZCom_InterpolateIPjLi8EE8getValueEh NONAME
    _ZN16ZCom_InterpolateIPjLi8EE8packDataEP14ZCom_BitStream NONAME
    _ZN16ZCom_InterpolateIPjLi8EE8peekDataEv NONAME
    _ZN16ZCom_InterpolateIPjLi8EE8setValueES0_ NONAME
    _ZN16ZCom_InterpolateIPjLi8EE8setValueEhj NONAME
    _ZN16ZCom_InterpolateIPjLi8EE9setRecValEhj NONAME
    _ZN16ZCom_InterpolateIPjLi8EEC1ES0_P22ZCom_RSetupInterpolateIjE NONAME
    _ZN16ZCom_InterpolateIPjLi8EEC1ES0_hhhjS0_hssf NONAME
    _ZN16ZCom_InterpolateIPjLi8EEC2ES0_P22ZCom_RSetupInterpolateIjE NONAME
    _ZN16ZCom_InterpolateIPjLi8EEC2ES0_hhhjS0_hssf NONAME
    _ZN16ZCom_InterpolateIPjLi8EED0Ev NONAME
    _ZN16ZCom_InterpolateIPjLi8EED1Ev NONAME
    _ZN16ZCom_InterpolateIPjLi8EED2Ev NONAME
    _ZN16ZCom_InterpolateIPjLi9EE10checkStateEv NONAME
    _ZN16ZCom_InterpolateIPjLi9EE10unpackDataEP14ZCom_BitStreambj NONAME
    _ZN16ZCom_InterpolateIPjLi9EE12getRecValPtrEh NONAME
    _ZN16ZCom_InterpolateIPjLi9EE13clearPeekDataEv NONAME
    _ZN16ZCom_InterpolateIPjLi9EE7ProcessE14eZCom_NodeRolej NONAME
    _ZN16ZCom_InterpolateIPjLi9EE8getValueEh NONAME
    _ZN16ZCom_InterpolateIPjLi9EE8packDataEP14ZCom_BitStream NONAME
    _ZN16ZCom_InterpolateIPjLi9EE8peekDataEv NONAME
    _ZN16ZCom_InterpolateIPjLi9EE8setValueES0_ NONAME
    _ZN16ZCom_InterpolateIPjLi9EE8setValueEhj NONAME
    _ZN16ZCom_InterpolateIPjLi9EE9setRecValEhj NONAME
    _ZN16ZCom_InterpolateIPjLi9EEC1ES0_P22ZCom_RSetupInterpolateIjE NONAME
    _ZN16ZCom_InterpolateIPjLi9EEC1ES0_hhhjS0_hssf NONAME
    _ZN16ZCom_InterpolateIPjLi9EEC2ES0_P22ZCom_RSetupInterpolateIjE NONAME
    _ZN16ZCom_InterpolateIPjLi9EEC2ES0_hhhjS0_hssf NONAME
    _ZN16ZCom_InterpolateIPjLi9EED0Ev NONAME
    _ZN16ZCom_InterpolateIPjLi9EED1Ev NONAME
    _ZN16ZCom_InterpolateIPjLi9EED2Ev NONAME
    _ZN16ZCom_InterpolateIfLi10EE10checkStateEv NONAME
    _ZN16ZCom_InterpolateIfLi10EE10unpackDataEP14ZCom_BitStreambj NONAME
    _ZN16ZCom_InterpolateIfLi10EE12getRecValPtrEh NONAME
    _ZN16ZCom_InterpolateIfLi10EE13clearPeekDataEv NONAME
    _ZN16ZCom_InterpolateIfLi10EE7ProcessE14eZCom_NodeRolej NONAME
    _ZN16ZCom_InterpolateIfLi10EE8getValueEh NONAME
    _ZN16ZCom_InterpolateIfLi10EE8packDataEP14ZCom_BitStream NONAME
    _ZN16ZCom_InterpolateIfLi10EE8peekDataEv NONAME
    _ZN16ZCom_InterpolateIfLi10EE8setValueEPf NONAME
    _ZN16ZCom_InterpolateIfLi10EE8setValueEhf NONAME
    _ZN16ZCom_InterpolateIfLi10EE9setRecValEhf NONAME
    _ZN16ZCom_InterpolateIfLi10EEC1EPfP22ZCom_RSetupInterpolateIfE NONAME
    _ZN16ZCom_InterpolateIfLi10EEC1EPfhhhfS1_hssf NONAME
    _ZN16ZCom_InterpolateIfLi10EEC2EPfP22ZCom_RSetupInterpolateIfE NONAME
    _ZN16ZCom_InterpolateIfLi10EEC2EPfhhhfS1_hssf NONAME
    _ZN16ZCom_InterpolateIfLi10EED0Ev NONAME
    _ZN16ZCom_InterpolateIfLi10EED1Ev NONAME
    _ZN16ZCom_InterpolateIfLi10EED2Ev NONAME
    _ZN16ZCom_InterpolateIfLi11EE10checkStateEv NONAME
    _ZN16ZCom_InterpolateIfLi11EE10unpackDataEP14ZCom_BitStreambj NONAME
    _ZN16ZCom_InterpolateIfLi11EE12getRecValPtrEh NONAME
    _ZN16ZCom_InterpolateIfLi11EE13clearPeekDataEv NONAME
    _ZN16ZCom_InterpolateIfLi11EE7ProcessE14eZCom_NodeRolej NONAME
    _ZN16ZCom_InterpolateIfLi11EE8getValueEh NONAME
    _ZN16ZCom_InterpolateIfLi11EE8packDataEP14ZCom_BitStream NONAME
    _ZN16ZCom_InterpolateIfLi11EE8peekDataEv NONAME
    _ZN16ZCom_InterpolateIfLi11EE8setValueEPf NONAME
    _ZN16ZCom_InterpolateIfLi11EE8setValueEhf NONAME
    _ZN16ZCom_InterpolateIfLi11EE9setRecValEhf NONAME
    _ZN16ZCom_InterpolateIfLi11EEC1EPfP22ZCom_RSetupInterpolateIfE NONAME
    _ZN16ZCom_InterpolateIfLi11EEC1EPfhhhfS1_hssf NONAME
    _ZN16ZCom_InterpolateIfLi11EEC2EPfP22ZCom_RSetupInterpolateIfE NONAME
    _ZN16ZCom_InterpolateIfLi11EEC2EPfhhhfS1_hssf NONAME
    _ZN16ZCom_InterpolateIfLi11EED0Ev NONAME
    _ZN16ZCom_InterpolateIfLi11EED1Ev NONAME
    _ZN16ZCom_InterpolateIfLi11EED2Ev NONAME
    _ZN16ZCom_InterpolateIfLi12EE10checkStateEv NONAME
    _ZN16ZCom_InterpolateIfLi12EE10unpackDataEP14ZCom_BitStreambj NONAME
    _ZN16ZCom_InterpolateIfLi12EE12getRecValPtrEh NONAME
    _ZN16ZCom_InterpolateIfLi12EE13clearPeekDataEv NONAME
    _ZN16ZCom_InterpolateIfLi12EE7ProcessE14eZCom_NodeRolej NONAME
    _ZN16ZCom_InterpolateIfLi12EE8getValueEh NONAME
    _ZN16ZCom_InterpolateIfLi12EE8packDataEP14ZCom_BitStream NONAME
    _ZN16ZCom_InterpolateIfLi12EE8peekDataEv NONAME
    _ZN16ZCom_InterpolateIfLi12EE8setValueEPf NONAME
    _ZN16ZCom_InterpolateIfLi12EE8setValueEhf NONAME
    _ZN16ZCom_InterpolateIfLi12EE9setRecValEhf NONAME
    _ZN16ZCom_InterpolateIfLi12EEC1EPfP22ZCom_RSetupInterpolateIfE NONAME
    _ZN16ZCom_InterpolateIfLi12EEC1EPfhhhfS1_hssf NONAME
    _ZN16ZCom_InterpolateIfLi12EEC2EPfP22ZCom_RSetupInterpolateIfE NONAME
    _ZN16ZCom_InterpolateIfLi12EEC2EPfhhhfS1_hssf NONAME
    _ZN16ZCom_InterpolateIfLi12EED0Ev NONAME
    _ZN16ZCom_InterpolateIfLi12EED1Ev NONAME
    _ZN16ZCom_InterpolateIfLi12EED2Ev NONAME
    _ZN16ZCom_InterpolateIfLi1EE10checkStateEv NONAME
    _ZN16ZCom_InterpolateIfLi1EE10unpackDataEP14ZCom_BitStreambj NONAME
    _ZN16ZCom_InterpolateIfLi1EE12getRecValPtrEh NONAME
    _ZN16ZCom_InterpolateIfLi1EE13clearPeekDataEv NONAME
    _ZN16ZCom_InterpolateIfLi1EE7ProcessE14eZCom_NodeRolej NONAME
    _ZN16ZCom_InterpolateIfLi1EE8getValueEh NONAME
    _ZN16ZCom_InterpolateIfLi1EE8packDataEP14ZCom_BitStream NONAME
    _ZN16ZCom_InterpolateIfLi1EE8peekDataEv NONAME
    _ZN16ZCom_InterpolateIfLi1EE8setValueEPf NONAME
    _ZN16ZCom_InterpolateIfLi1EE8setValueEhf NONAME
    _ZN16ZCom_InterpolateIfLi1EE9setRecValEhf NONAME
    _ZN16ZCom_InterpolateIfLi1EEC1EPfP22ZCom_RSetupInterpolateIfE NONAME
    _ZN16ZCom_InterpolateIfLi1EEC1EPfhhhfS1_hssf NONAME
    _ZN16ZCom_InterpolateIfLi1EEC2EPfP22ZCom_RSetupInterpolateIfE NONAME
    _ZN16ZCom_InterpolateIfLi1EEC2EPfhhhfS1_hssf NONAME
    _ZN16ZCom_InterpolateIfLi1EED0Ev NONAME
    _ZN16ZCom_InterpolateIfLi1EED1Ev NONAME
    _ZN16ZCom_InterpolateIfLi1EED2Ev NONAME
    _ZN16ZCom_InterpolateIfLi2EE10checkStateEv NONAME
    _ZN16ZCom_InterpolateIfLi2EE10unpackDataEP14ZCom_BitStreambj NONAME
    _ZN16ZCom_InterpolateIfLi2EE12getRecValPtrEh NONAME
    _ZN16ZCom_InterpolateIfLi2EE13clearPeekDataEv NONAME
    _ZN16ZCom_InterpolateIfLi2EE7ProcessE14eZCom_NodeRolej NONAME
    _ZN16ZCom_InterpolateIfLi2EE8getValueEh NONAME
    _ZN16ZCom_InterpolateIfLi2EE8packDataEP14ZCom_BitStream NONAME
    _ZN16ZCom_InterpolateIfLi2EE8peekDataEv NONAME
    _ZN16ZCom_InterpolateIfLi2EE8setValueEPf NONAME
    _ZN16ZCom_InterpolateIfLi2EE8setValueEhf NONAME
    _ZN16ZCom_InterpolateIfLi2EE9setRecValEhf NONAME
    _ZN16ZCom_InterpolateIfLi2EEC1EPfP22ZCom_RSetupInterpolateIfE NONAME
    _ZN16ZCom_InterpolateIfLi2EEC1EPfhhhfS1_hssf NONAME
    _ZN16ZCom_InterpolateIfLi2EEC2EPfP22ZCom_RSetupInterpolateIfE NONAME
    _ZN16ZCom_InterpolateIfLi2EEC2EPfhhhfS1_hssf NONAME
    _ZN16ZCom_InterpolateIfLi2EED0Ev NONAME
    _ZN16ZCom_InterpolateIfLi2EED1Ev NONAME
    _ZN16ZCom_InterpolateIfLi2EED2Ev NONAME
    _ZN16ZCom_InterpolateIfLi3EE10checkStateEv NONAME
    _ZN16ZCom_InterpolateIfLi3EE10unpackDataEP14ZCom_BitStreambj NONAME
    _ZN16ZCom_InterpolateIfLi3EE12getRecValPtrEh NONAME
    _ZN16ZCom_InterpolateIfLi3EE13clearPeekDataEv NONAME
    _ZN16ZCom_InterpolateIfLi3EE7ProcessE14eZCom_NodeRolej NONAME
    _ZN16ZCom_InterpolateIfLi3EE8getValueEh NONAME
    _ZN16ZCom_InterpolateIfLi3EE8packDataEP14ZCom_BitStream NONAME
    _ZN16ZCom_InterpolateIfLi3EE8peekDataEv NONAME
    _ZN16ZCom_InterpolateIfLi3EE8setValueEPf NONAME
    _ZN16ZCom_InterpolateIfLi3EE8setValueEhf NONAME
    _ZN16ZCom_InterpolateIfLi3EE9setRecValEhf NONAME
    _ZN16ZCom_InterpolateIfLi3EEC1EPfP22ZCom_RSetupInterpolateIfE NONAME
    _ZN16ZCom_InterpolateIfLi3EEC1EPfhhhfS1_hssf NONAME
    _ZN16ZCom_InterpolateIfLi3EEC2EPfP22ZCom_RSetupInterpolateIfE NONAME
    _ZN16ZCom_InterpolateIfLi3EEC2EPfhhhfS1_hssf NONAME
    _ZN16ZCom_InterpolateIfLi3EED0Ev NONAME
    _ZN16ZCom_InterpolateIfLi3EED1Ev NONAME
    _ZN16ZCom_InterpolateIfLi3EED2Ev NONAME
    _ZN16ZCom_InterpolateIfLi4EE10checkStateEv NONAME
    _ZN16ZCom_InterpolateIfLi4EE10unpackDataEP14ZCom_BitStreambj NONAME
    _ZN16ZCom_InterpolateIfLi4EE12getRecValPtrEh NONAME
    _ZN16ZCom_InterpolateIfLi4EE13clearPeekDataEv NONAME
    _ZN16ZCom_InterpolateIfLi4EE7ProcessE14eZCom_NodeRolej NONAME
    _ZN16ZCom_InterpolateIfLi4EE8getValueEh NONAME
    _ZN16ZCom_InterpolateIfLi4EE8packDataEP14ZCom_BitStream NONAME
    _ZN16ZCom_InterpolateIfLi4EE8peekDataEv NONAME
    _ZN16ZCom_InterpolateIfLi4EE8setValueEPf NONAME
    _ZN16ZCom_InterpolateIfLi4EE8setValueEhf NONAME
    _ZN16ZCom_InterpolateIfLi4EE9setRecValEhf NONAME
    _ZN16ZCom_InterpolateIfLi4EEC1EPfP22ZCom_RSetupInterpolateIfE NONAME
    _ZN16ZCom_InterpolateIfLi4EEC1EPfhhhfS1_hssf NONAME
    _ZN16ZCom_InterpolateIfLi4EEC2EPfP22ZCom_RSetupInterpolateIfE NONAME
    _ZN16ZCom_InterpolateIfLi4EEC2EPfhhhfS1_hssf NONAME
    _ZN16ZCom_InterpolateIfLi4EED0Ev NONAME
    _ZN16ZCom_InterpolateIfLi4EED1Ev NONAME
    _ZN16ZCom_InterpolateIfLi4EED2Ev NONAME
    _ZN16ZCom_InterpolateIfLi5EE10checkStateEv NONAME
    _ZN16ZCom_InterpolateIfLi5EE10unpackDataEP14ZCom_BitStreambj NONAME
    _ZN16ZCom_InterpolateIfLi5EE12getRecValPtrEh NONAME
    _ZN16ZCom_InterpolateIfLi5EE13clearPeekDataEv NONAME
    _ZN16ZCom_InterpolateIfLi5EE7ProcessE14eZCom_NodeRolej NONAME
    _ZN16ZCom_InterpolateIfLi5EE8getValueEh NONAME
    _ZN16ZCom_InterpolateIfLi5EE8packDataEP14ZCom_BitStream NONAME
    _ZN16ZCom_InterpolateIfLi5EE8peekDataEv NONAME
    _ZN16ZCom_InterpolateIfLi5EE8setValueEPf NONAME
    _ZN16ZCom_InterpolateIfLi5EE8setValueEhf NONAME
    _ZN16ZCom_InterpolateIfLi5EE9setRecValEhf NONAME
    _ZN16ZCom_InterpolateIfLi5EEC1EPfP22ZCom_RSetupInterpolateIfE NONAME
    _ZN16ZCom_InterpolateIfLi5EEC1EPfhhhfS1_hssf NONAME
    _ZN16ZCom_InterpolateIfLi5EEC2EPfP22ZCom_RSetupInterpolateIfE NONAME
    _ZN16ZCom_InterpolateIfLi5EEC2EPfhhhfS1_hssf NONAME
    _ZN16ZCom_InterpolateIfLi5EED0Ev NONAME
    _ZN16ZCom_InterpolateIfLi5EED1Ev NONAME
    _ZN16ZCom_InterpolateIfLi5EED2Ev NONAME
    _ZN16ZCom_InterpolateIfLi6EE10checkStateEv NONAME
    _ZN16ZCom_InterpolateIfLi6EE10unpackDataEP14ZCom_BitStreambj NONAME
    _ZN16ZCom_InterpolateIfLi6EE12getRecValPtrEh NONAME
    _ZN16ZCom_InterpolateIfLi6EE13clearPeekDataEv NONAME
    _ZN16ZCom_InterpolateIfLi6EE7ProcessE14eZCom_NodeRolej NONAME
    _ZN16ZCom_InterpolateIfLi6EE8getValueEh NONAME
    _ZN16ZCom_InterpolateIfLi6EE8packDataEP14ZCom_BitStream NONAME
    _ZN16ZCom_InterpolateIfLi6EE8peekDataEv NONAME
    _ZN16ZCom_InterpolateIfLi6EE8setValueEPf NONAME
    _ZN16ZCom_InterpolateIfLi6EE8setValueEhf NONAME
    _ZN16ZCom_InterpolateIfLi6EE9setRecValEhf NONAME
    _ZN16ZCom_InterpolateIfLi6EEC1EPfP22ZCom_RSetupInterpolateIfE NONAME
    _ZN16ZCom_InterpolateIfLi6EEC1EPfhhhfS1_hssf NONAME
    _ZN16ZCom_InterpolateIfLi6EEC2EPfP22ZCom_RSetupInterpolateIfE NONAME
    _ZN16ZCom_InterpolateIfLi6EEC2EPfhhhfS1_hssf NONAME
    _ZN16ZCom_InterpolateIfLi6EED0Ev NONAME
    _ZN16ZCom_InterpolateIfLi6EED1Ev NONAME
    _ZN16ZCom_InterpolateIfLi6EED2Ev NONAME
    _ZN16ZCom_InterpolateIfLi7EE10checkStateEv NONAME
    _ZN16ZCom_InterpolateIfLi7EE10unpackDataEP14ZCom_BitStreambj NONAME
    _ZN16ZCom_InterpolateIfLi7EE12getRecValPtrEh NONAME
    _ZN16ZCom_InterpolateIfLi7EE13clearPeekDataEv NONAME
    _ZN16ZCom_InterpolateIfLi7EE7ProcessE14eZCom_NodeRolej NONAME
    _ZN16ZCom_InterpolateIfLi7EE8getValueEh NONAME
    _ZN16ZCom_InterpolateIfLi7EE8packDataEP14ZCom_BitStream NONAME
    _ZN16ZCom_InterpolateIfLi7EE8peekDataEv NONAME
    _ZN16ZCom_InterpolateIfLi7EE8setValueEPf NONAME
    _ZN16ZCom_InterpolateIfLi7EE8setValueEhf NONAME
    _ZN16ZCom_InterpolateIfLi7EE9setRecValEhf NONAME
    _ZN16ZCom_InterpolateIfLi7EEC1EPfP22ZCom_RSetupInterpolateIfE NONAME
    _ZN16ZCom_InterpolateIfLi7EEC1EPfhhhfS1_hssf NONAME
    _ZN16ZCom_InterpolateIfLi7EEC2EPfP22ZCom_RSetupInterpolateIfE NONAME
    _ZN16ZCom_InterpolateIfLi7EEC2EPfhhhfS1_hssf NONAME
    _ZN16ZCom_InterpolateIfLi7EED0Ev NONAME
    _ZN16ZCom_InterpolateIfLi7EED1Ev NONAME
    _ZN16ZCom_InterpolateIfLi7EED2Ev NONAME
    _ZN16ZCom_InterpolateIfLi8EE10checkStateEv NONAME
    _ZN16ZCom_InterpolateIfLi8EE10unpackDataEP14ZCom_BitStreambj NONAME
    _ZN16ZCom_InterpolateIfLi8EE12getRecValPtrEh NONAME
    _ZN16ZCom_InterpolateIfLi8EE13clearPeekDataEv NONAME
    _ZN16ZCom_InterpolateIfLi8EE7ProcessE14eZCom_NodeRolej NONAME
    _ZN16ZCom_InterpolateIfLi8EE8getValueEh NONAME
    _ZN16ZCom_InterpolateIfLi8EE8packDataEP14ZCom_BitStream NONAME
    _ZN16ZCom_InterpolateIfLi8EE8peekDataEv NONAME
    _ZN16ZCom_InterpolateIfLi8EE8setValueEPf NONAME
    _ZN16ZCom_InterpolateIfLi8EE8setValueEhf NONAME
    _ZN16ZCom_InterpolateIfLi8EE9setRecValEhf NONAME
    _ZN16ZCom_InterpolateIfLi8EEC1EPfP22ZCom_RSetupInterpolateIfE NONAME
    _ZN16ZCom_InterpolateIfLi8EEC1EPfhhhfS1_hssf NONAME
    _ZN16ZCom_InterpolateIfLi8EEC2EPfP22ZCom_RSetupInterpolateIfE NONAME
    _ZN16ZCom_InterpolateIfLi8EEC2EPfhhhfS1_hssf NONAME
    _ZN16ZCom_InterpolateIfLi8EED0Ev NONAME
    _ZN16ZCom_InterpolateIfLi8EED1Ev NONAME
    _ZN16ZCom_InterpolateIfLi8EED2Ev NONAME
    _ZN16ZCom_InterpolateIfLi9EE10checkStateEv NONAME
    _ZN16ZCom_InterpolateIfLi9EE10unpackDataEP14ZCom_BitStreambj NONAME
    _ZN16ZCom_InterpolateIfLi9EE12getRecValPtrEh NONAME
    _ZN16ZCom_InterpolateIfLi9EE13clearPeekDataEv NONAME
    _ZN16ZCom_InterpolateIfLi9EE7ProcessE14eZCom_NodeRolej NONAME
    _ZN16ZCom_InterpolateIfLi9EE8getValueEh NONAME
    _ZN16ZCom_InterpolateIfLi9EE8packDataEP14ZCom_BitStream NONAME
    _ZN16ZCom_InterpolateIfLi9EE8peekDataEv NONAME
    _ZN16ZCom_InterpolateIfLi9EE8setValueEPf NONAME
    _ZN16ZCom_InterpolateIfLi9EE8setValueEhf NONAME
    _ZN16ZCom_InterpolateIfLi9EE9setRecValEhf NONAME
    _ZN16ZCom_InterpolateIfLi9EEC1EPfP22ZCom_RSetupInterpolateIfE NONAME
    _ZN16ZCom_InterpolateIfLi9EEC1EPfhhhfS1_hssf NONAME
    _ZN16ZCom_InterpolateIfLi9EEC2EPfP22ZCom_RSetupInterpolateIfE NONAME
    _ZN16ZCom_InterpolateIfLi9EEC2EPfhhhfS1_hssf NONAME
    _ZN16ZCom_InterpolateIfLi9EED0Ev NONAME
    _ZN16ZCom_InterpolateIfLi9EED1Ev NONAME
    _ZN16ZCom_InterpolateIfLi9EED2Ev NONAME
    _ZN16ZCom_InterpolateIiLi10EE10checkStateEv NONAME
    _ZN16ZCom_InterpolateIiLi10EE10unpackDataEP14ZCom_BitStreambj NONAME
    _ZN16ZCom_InterpolateIiLi10EE12getRecValPtrEh NONAME
    _ZN16ZCom_InterpolateIiLi10EE13clearPeekDataEv NONAME
    _ZN16ZCom_InterpolateIiLi10EE7ProcessE14eZCom_NodeRolej NONAME
    _ZN16ZCom_InterpolateIiLi10EE8getValueEh NONAME
    _ZN16ZCom_InterpolateIiLi10EE8packDataEP14ZCom_BitStream NONAME
    _ZN16ZCom_InterpolateIiLi10EE8peekDataEv NONAME
    _ZN16ZCom_InterpolateIiLi10EE8setValueEPi NONAME
    _ZN16ZCom_InterpolateIiLi10EE8setValueEhi NONAME
    _ZN16ZCom_InterpolateIiLi10EE9setRecValEhi NONAME
    _ZN16ZCom_InterpolateIiLi10EEC1EPiP22ZCom_RSetupInterpolateIiE NONAME
    _ZN16ZCom_InterpolateIiLi10EEC1EPihhhiS1_hssf NONAME
    _ZN16ZCom_InterpolateIiLi10EEC2EPiP22ZCom_RSetupInterpolateIiE NONAME
    _ZN16ZCom_InterpolateIiLi10EEC2EPihhhiS1_hssf NONAME
    _ZN16ZCom_InterpolateIiLi10EED0Ev NONAME
    _ZN16ZCom_InterpolateIiLi10EED1Ev NONAME
    _ZN16ZCom_InterpolateIiLi10EED2Ev NONAME
    _ZN16ZCom_InterpolateIiLi11EE10checkStateEv NONAME
    _ZN16ZCom_InterpolateIiLi11EE10unpackDataEP14ZCom_BitStreambj NONAME
    _ZN16ZCom_InterpolateIiLi11EE12getRecValPtrEh NONAME
    _ZN16ZCom_InterpolateIiLi11EE13clearPeekDataEv NONAME
    _ZN16ZCom_InterpolateIiLi11EE7ProcessE14eZCom_NodeRolej NONAME
    _ZN16ZCom_InterpolateIiLi11EE8getValueEh NONAME
    _ZN16ZCom_InterpolateIiLi11EE8packDataEP14ZCom_BitStream NONAME
    _ZN16ZCom_InterpolateIiLi11EE8peekDataEv NONAME
    _ZN16ZCom_InterpolateIiLi11EE8setValueEPi NONAME
    _ZN16ZCom_InterpolateIiLi11EE8setValueEhi NONAME
    _ZN16ZCom_InterpolateIiLi11EE9setRecValEhi NONAME
    _ZN16ZCom_InterpolateIiLi11EEC1EPiP22ZCom_RSetupInterpolateIiE NONAME
    _ZN16ZCom_InterpolateIiLi11EEC1EPihhhiS1_hssf NONAME
    _ZN16ZCom_InterpolateIiLi11EEC2EPiP22ZCom_RSetupInterpolateIiE NONAME
    _ZN16ZCom_InterpolateIiLi11EEC2EPihhhiS1_hssf NONAME
    _ZN16ZCom_InterpolateIiLi11EED0Ev NONAME
    _ZN16ZCom_InterpolateIiLi11EED1Ev NONAME
    _ZN16ZCom_InterpolateIiLi11EED2Ev NONAME
    _ZN16ZCom_InterpolateIiLi12EE10checkStateEv NONAME
    _ZN16ZCom_InterpolateIiLi12EE10unpackDataEP14ZCom_BitStreambj NONAME
    _ZN16ZCom_InterpolateIiLi12EE12getRecValPtrEh NONAME
    _ZN16ZCom_InterpolateIiLi12EE13clearPeekDataEv NONAME
    _ZN16ZCom_InterpolateIiLi12EE7ProcessE14eZCom_NodeRolej NONAME
    _ZN16ZCom_InterpolateIiLi12EE8getValueEh NONAME
    _ZN16ZCom_InterpolateIiLi12EE8packDataEP14ZCom_BitStream NONAME
    _ZN16ZCom_InterpolateIiLi12EE8peekDataEv NONAME
    _ZN16ZCom_InterpolateIiLi12EE8setValueEPi NONAME
    _ZN16ZCom_InterpolateIiLi12EE8setValueEhi NONAME
    _ZN16ZCom_InterpolateIiLi12EE9setRecValEhi NONAME
    _ZN16ZCom_InterpolateIiLi12EEC1EPiP22ZCom_RSetupInterpolateIiE NONAME
    _ZN16ZCom_InterpolateIiLi12EEC1EPihhhiS1_hssf NONAME
    _ZN16ZCom_InterpolateIiLi12EEC2EPiP22ZCom_RSetupInterpolateIiE NONAME
    _ZN16ZCom_InterpolateIiLi12EEC2EPihhhiS1_hssf NONAME
    _ZN16ZCom_InterpolateIiLi12EED0Ev NONAME
    _ZN16ZCom_InterpolateIiLi12EED1Ev NONAME
    _ZN16ZCom_InterpolateIiLi12EED2Ev NONAME
    _ZN16ZCom_InterpolateIiLi1EE10checkStateEv NONAME
    _ZN16ZCom_InterpolateIiLi1EE10unpackDataEP14ZCom_BitStreambj NONAME
    _ZN16ZCom_InterpolateIiLi1EE12getRecValPtrEh NONAME
    _ZN16ZCom_InterpolateIiLi1EE13clearPeekDataEv NONAME
    _ZN16ZCom_InterpolateIiLi1EE7ProcessE14eZCom_NodeRolej NONAME
    _ZN16ZCom_InterpolateIiLi1EE8getValueEh NONAME
    _ZN16ZCom_InterpolateIiLi1EE8packDataEP14ZCom_BitStream NONAME
    _ZN16ZCom_InterpolateIiLi1EE8peekDataEv NONAME
    _ZN16ZCom_InterpolateIiLi1EE8setValueEPi NONAME
    _ZN16ZCom_InterpolateIiLi1EE8setValueEhi NONAME
    _ZN16ZCom_InterpolateIiLi1EE9setRecValEhi NONAME
    _ZN16ZCom_InterpolateIiLi1EEC1EPiP22ZCom_RSetupInterpolateIiE NONAME
    _ZN16ZCom_InterpolateIiLi1EEC1EPihhhiS1_hssf NONAME
    _ZN16ZCom_InterpolateIiLi1EEC2EPiP22ZCom_RSetupInterpolateIiE NONAME
    _ZN16ZCom_InterpolateIiLi1EEC2EPihhhiS1_hssf NONAME
    _ZN16ZCom_InterpolateIiLi1EED0Ev NONAME
    _ZN16ZCom_InterpolateIiLi1EED1Ev NONAME
    _ZN16ZCom_InterpolateIiLi1EED2Ev NONAME
    _ZN16ZCom_InterpolateIiLi2EE10checkStateEv NONAME
    _ZN16ZCom_InterpolateIiLi2EE10unpackDataEP14ZCom_BitStreambj NONAME
    _ZN16ZCom_InterpolateIiLi2EE12getRecValPtrEh NONAME
    _ZN16ZCom_InterpolateIiLi2EE13clearPeekDataEv NONAME
    _ZN16ZCom_InterpolateIiLi2EE7ProcessE14eZCom_NodeRolej NONAME
    _ZN16ZCom_InterpolateIiLi2EE8getValueEh NONAME
    _ZN16ZCom_InterpolateIiLi2EE8packDataEP14ZCom_BitStream NONAME
    _ZN16ZCom_InterpolateIiLi2EE8peekDataEv NONAME
    _ZN16ZCom_InterpolateIiLi2EE8setValueEPi NONAME
    _ZN16ZCom_InterpolateIiLi2EE8setValueEhi NONAME
    _ZN16ZCom_InterpolateIiLi2EE9setRecValEhi NONAME
    _ZN16ZCom_InterpolateIiLi2EEC1EPiP22ZCom_RSetupInterpolateIiE NONAME
    _ZN16ZCom_InterpolateIiLi2EEC1EPihhhiS1_hssf NONAME
    _ZN16ZCom_InterpolateIiLi2EEC2EPiP22ZCom_RSetupInterpolateIiE NONAME
    _ZN16ZCom_InterpolateIiLi2EEC2EPihhhiS1_hssf NONAME
    _ZN16ZCom_InterpolateIiLi2EED0Ev NONAME
    _ZN16ZCom_InterpolateIiLi2EED1Ev NONAME
    _ZN16ZCom_InterpolateIiLi2EED2Ev NONAME
    _ZN16ZCom_InterpolateIiLi3EE10checkStateEv NONAME
    _ZN16ZCom_InterpolateIiLi3EE10unpackDataEP14ZCom_BitStreambj NONAME
    _ZN16ZCom_InterpolateIiLi3EE12getRecValPtrEh NONAME
    _ZN16ZCom_InterpolateIiLi3EE13clearPeekDataEv NONAME
    _ZN16ZCom_InterpolateIiLi3EE7ProcessE14eZCom_NodeRolej NONAME
    _ZN16ZCom_InterpolateIiLi3EE8getValueEh NONAME
    _ZN16ZCom_InterpolateIiLi3EE8packDataEP14ZCom_BitStream NONAME
    _ZN16ZCom_InterpolateIiLi3EE8peekDataEv NONAME
    _ZN16ZCom_InterpolateIiLi3EE8setValueEPi NONAME
    _ZN16ZCom_InterpolateIiLi3EE8setValueEhi NONAME
    _ZN16ZCom_InterpolateIiLi3EE9setRecValEhi NONAME
    _ZN16ZCom_InterpolateIiLi3EEC1EPiP22ZCom_RSetupInterpolateIiE NONAME
    _ZN16ZCom_InterpolateIiLi3EEC1EPihhhiS1_hssf NONAME
    _ZN16ZCom_InterpolateIiLi3EEC2EPiP22ZCom_RSetupInterpolateIiE NONAME
    _ZN16ZCom_InterpolateIiLi3EEC2EPihhhiS1_hssf NONAME
    _ZN16ZCom_InterpolateIiLi3EED0Ev NONAME
    _ZN16ZCom_InterpolateIiLi3EED1Ev NONAME
    _ZN16ZCom_InterpolateIiLi3EED2Ev NONAME
    _ZN16ZCom_InterpolateIiLi4EE10checkStateEv NONAME
    _ZN16ZCom_InterpolateIiLi4EE10unpackDataEP14ZCom_BitStreambj NONAME
    _ZN16ZCom_InterpolateIiLi4EE12getRecValPtrEh NONAME
    _ZN16ZCom_InterpolateIiLi4EE13clearPeekDataEv NONAME
    _ZN16ZCom_InterpolateIiLi4EE7ProcessE14eZCom_NodeRolej NONAME
    _ZN16ZCom_InterpolateIiLi4EE8getValueEh NONAME
    _ZN16ZCom_InterpolateIiLi4EE8packDataEP14ZCom_BitStream NONAME
    _ZN16ZCom_InterpolateIiLi4EE8peekDataEv NONAME
    _ZN16ZCom_InterpolateIiLi4EE8setValueEPi NONAME
    _ZN16ZCom_InterpolateIiLi4EE8setValueEhi NONAME
    _ZN16ZCom_InterpolateIiLi4EE9setRecValEhi NONAME
    _ZN16ZCom_InterpolateIiLi4EEC1EPiP22ZCom_RSetupInterpolateIiE NONAME
    _ZN16ZCom_InterpolateIiLi4EEC1EPihhhiS1_hssf NONAME
    _ZN16ZCom_InterpolateIiLi4EEC2EPiP22ZCom_RSetupInterpolateIiE NONAME
    _ZN16ZCom_InterpolateIiLi4EEC2EPihhhiS1_hssf NONAME
    _ZN16ZCom_InterpolateIiLi4EED0Ev NONAME
    _ZN16ZCom_InterpolateIiLi4EED1Ev NONAME
    _ZN16ZCom_InterpolateIiLi4EED2Ev NONAME
    _ZN16ZCom_InterpolateIiLi5EE10checkStateEv NONAME
    _ZN16ZCom_InterpolateIiLi5EE10unpackDataEP14ZCom_BitStreambj NONAME
    _ZN16ZCom_InterpolateIiLi5EE12getRecValPtrEh NONAME
    _ZN16ZCom_InterpolateIiLi5EE13clearPeekDataEv NONAME
    _ZN16ZCom_InterpolateIiLi5EE7ProcessE14eZCom_NodeRolej NONAME
    _ZN16ZCom_InterpolateIiLi5EE8getValueEh NONAME
    _ZN16ZCom_InterpolateIiLi5EE8packDataEP14ZCom_BitStream NONAME
    _ZN16ZCom_InterpolateIiLi5EE8peekDataEv NONAME
    _ZN16ZCom_InterpolateIiLi5EE8setValueEPi NONAME
    _ZN16ZCom_InterpolateIiLi5EE8setValueEhi NONAME
    _ZN16ZCom_InterpolateIiLi5EE9setRecValEhi NONAME
    _ZN16ZCom_InterpolateIiLi5EEC1EPiP22ZCom_RSetupInterpolateIiE NONAME
    _ZN16ZCom_InterpolateIiLi5EEC1EPihhhiS1_hssf NONAME
    _ZN16ZCom_InterpolateIiLi5EEC2EPiP22ZCom_RSetupInterpolateIiE NONAME
    _ZN16ZCom_InterpolateIiLi5EEC2EPihhhiS1_hssf NONAME
    _ZN16ZCom_InterpolateIiLi5EED0Ev NONAME
    _ZN16ZCom_InterpolateIiLi5EED1Ev NONAME
    _ZN16ZCom_InterpolateIiLi5EED2Ev NONAME
    _ZN16ZCom_InterpolateIiLi6EE10checkStateEv NONAME
    _ZN16ZCom_InterpolateIiLi6EE10unpackDataEP14ZCom_BitStreambj NONAME
    _ZN16ZCom_InterpolateIiLi6EE12getRecValPtrEh NONAME
    _ZN16ZCom_InterpolateIiLi6EE13clearPeekDataEv NONAME
    _ZN16ZCom_InterpolateIiLi6EE7ProcessE14eZCom_NodeRolej NONAME
    _ZN16ZCom_InterpolateIiLi6EE8getValueEh NONAME
    _ZN16ZCom_InterpolateIiLi6EE8packDataEP14ZCom_BitStream NONAME
    _ZN16ZCom_InterpolateIiLi6EE8peekDataEv NONAME
    _ZN16ZCom_InterpolateIiLi6EE8setValueEPi NONAME
    _ZN16ZCom_InterpolateIiLi6EE8setValueEhi NONAME
    _ZN16ZCom_InterpolateIiLi6EE9setRecValEhi NONAME
    _ZN16ZCom_InterpolateIiLi6EEC1EPiP22ZCom_RSetupInterpolateIiE NONAME
    _ZN16ZCom_InterpolateIiLi6EEC1EPihhhiS1_hssf NONAME
    _ZN16ZCom_InterpolateIiLi6EEC2EPiP22ZCom_RSetupInterpolateIiE NONAME
    _ZN16ZCom_InterpolateIiLi6EEC2EPihhhiS1_hssf NONAME
    _ZN16ZCom_InterpolateIiLi6EED0Ev NONAME
    _ZN16ZCom_InterpolateIiLi6EED1Ev NONAME
    _ZN16ZCom_InterpolateIiLi6EED2Ev NONAME
    _ZN16ZCom_InterpolateIiLi7EE10checkStateEv NONAME
    _ZN16ZCom_InterpolateIiLi7EE10unpackDataEP14ZCom_BitStreambj NONAME
    _ZN16ZCom_InterpolateIiLi7EE12getRecValPtrEh NONAME
    _ZN16ZCom_InterpolateIiLi7EE13clearPeekDataEv NONAME
    _ZN16ZCom_InterpolateIiLi7EE7ProcessE14eZCom_NodeRolej NONAME
    _ZN16ZCom_InterpolateIiLi7EE8getValueEh NONAME
    _ZN16ZCom_InterpolateIiLi7EE8packDataEP14ZCom_BitStream NONAME
    _ZN16ZCom_InterpolateIiLi7EE8peekDataEv NONAME
    _ZN16ZCom_InterpolateIiLi7EE8setValueEPi NONAME
    _ZN16ZCom_InterpolateIiLi7EE8setValueEhi NONAME
    _ZN16ZCom_InterpolateIiLi7EE9setRecValEhi NONAME
    _ZN16ZCom_InterpolateIiLi7EEC1EPiP22ZCom_RSetupInterpolateIiE NONAME
    _ZN16ZCom_InterpolateIiLi7EEC1EPihhhiS1_hssf NONAME
    _ZN16ZCom_InterpolateIiLi7EEC2EPiP22ZCom_RSetupInterpolateIiE NONAME
    _ZN16ZCom_InterpolateIiLi7EEC2EPihhhiS1_hssf NONAME
    _ZN16ZCom_InterpolateIiLi7EED0Ev NONAME
    _ZN16ZCom_InterpolateIiLi7EED1Ev NONAME
    _ZN16ZCom_InterpolateIiLi7EED2Ev NONAME
    _ZN16ZCom_InterpolateIiLi8EE10checkStateEv NONAME
    _ZN16ZCom_InterpolateIiLi8EE10unpackDataEP14ZCom_BitStreambj NONAME
    _ZN16ZCom_InterpolateIiLi8EE12getRecValPtrEh NONAME
    _ZN16ZCom_InterpolateIiLi8EE13clearPeekDataEv NONAME
    _ZN16ZCom_InterpolateIiLi8EE7ProcessE14eZCom_NodeRolej NONAME
    _ZN16ZCom_InterpolateIiLi8EE8getValueEh NONAME
    _ZN16ZCom_InterpolateIiLi8EE8packDataEP14ZCom_BitStream NONAME
    _ZN16ZCom_InterpolateIiLi8EE8peekDataEv NONAME
    _ZN16ZCom_InterpolateIiLi8EE8setValueEPi NONAME
    _ZN16ZCom_InterpolateIiLi8EE8setValueEhi NONAME
    _ZN16ZCom_InterpolateIiLi8EE9setRecValEhi NONAME
    _ZN16ZCom_InterpolateIiLi8EEC1EPiP22ZCom_RSetupInterpolateIiE NONAME
    _ZN16ZCom_InterpolateIiLi8EEC1EPihhhiS1_hssf NONAME
    _ZN16ZCom_InterpolateIiLi8EEC2EPiP22ZCom_RSetupInterpolateIiE NONAME
    _ZN16ZCom_InterpolateIiLi8EEC2EPihhhiS1_hssf NONAME
    _ZN16ZCom_InterpolateIiLi8EED0Ev NONAME
    _ZN16ZCom_InterpolateIiLi8EED1Ev NONAME
    _ZN16ZCom_InterpolateIiLi8EED2Ev NONAME
    _ZN16ZCom_InterpolateIiLi9EE10checkStateEv NONAME
    _ZN16ZCom_InterpolateIiLi9EE10unpackDataEP14ZCom_BitStreambj NONAME
    _ZN16ZCom_InterpolateIiLi9EE12getRecValPtrEh NONAME
    _ZN16ZCom_InterpolateIiLi9EE13clearPeekDataEv NONAME
    _ZN16ZCom_InterpolateIiLi9EE7ProcessE14eZCom_NodeRolej NONAME
    _ZN16ZCom_InterpolateIiLi9EE8getValueEh NONAME
    _ZN16ZCom_InterpolateIiLi9EE8packDataEP14ZCom_BitStream NONAME
    _ZN16ZCom_InterpolateIiLi9EE8peekDataEv NONAME
    _ZN16ZCom_InterpolateIiLi9EE8setValueEPi NONAME
    _ZN16ZCom_InterpolateIiLi9EE8setValueEhi NONAME
    _ZN16ZCom_InterpolateIiLi9EE9setRecValEhi NONAME
    _ZN16ZCom_InterpolateIiLi9EEC1EPiP22ZCom_RSetupInterpolateIiE NONAME
    _ZN16ZCom_InterpolateIiLi9EEC1EPihhhiS1_hssf NONAME
    _ZN16ZCom_InterpolateIiLi9EEC2EPiP22ZCom_RSetupInterpolateIiE NONAME
    _ZN16ZCom_InterpolateIiLi9EEC2EPihhhiS1_hssf NONAME
    _ZN16ZCom_InterpolateIiLi9EED0Ev NONAME
    _ZN16ZCom_InterpolateIiLi9EED1Ev NONAME
    _ZN16ZCom_InterpolateIiLi9EED2Ev NONAME
    _ZN16ZCom_InterpolateIjLi10EE10checkStateEv NONAME
    _ZN16ZCom_InterpolateIjLi10EE10unpackDataEP14ZCom_BitStreambj NONAME
    _ZN16ZCom_InterpolateIjLi10EE12getRecValPtrEh NONAME
    _ZN16ZCom_InterpolateIjLi10EE13clearPeekDataEv NONAME
    _ZN16ZCom_InterpolateIjLi10EE7ProcessE14eZCom_NodeRolej NONAME
    _ZN16ZCom_InterpolateIjLi10EE8getValueEh NONAME
    _ZN16ZCom_InterpolateIjLi10EE8packDataEP14ZCom_BitStream NONAME
    _ZN16ZCom_InterpolateIjLi10EE8peekDataEv NONAME
    _ZN16ZCom_InterpolateIjLi10EE8setValueEPj NONAME
    _ZN16ZCom_InterpolateIjLi10EE8setValueEhj NONAME
    _ZN16ZCom_InterpolateIjLi10EE9setRecValEhj NONAME
    _ZN16ZCom_InterpolateIjLi10EEC1EPjP22ZCom_RSetupInterpolateIjE NONAME
    _ZN16ZCom_InterpolateIjLi10EEC1EPjhhhjS1_hssf NONAME
    _ZN16ZCom_InterpolateIjLi10EEC2EPjP22ZCom_RSetupInterpolateIjE NONAME
    _ZN16ZCom_InterpolateIjLi10EEC2EPjhhhjS1_hssf NONAME
    _ZN16ZCom_InterpolateIjLi10EED0Ev NONAME
    _ZN16ZCom_InterpolateIjLi10EED1Ev NONAME
    _ZN16ZCom_InterpolateIjLi10EED2Ev NONAME
    _ZN16ZCom_InterpolateIjLi11EE10checkStateEv NONAME
    _ZN16ZCom_InterpolateIjLi11EE10unpackDataEP14ZCom_BitStreambj NONAME
    _ZN16ZCom_InterpolateIjLi11EE12getRecValPtrEh NONAME
    _ZN16ZCom_InterpolateIjLi11EE13clearPeekDataEv NONAME
    _ZN16ZCom_InterpolateIjLi11EE7ProcessE14eZCom_NodeRolej NONAME
    _ZN16ZCom_InterpolateIjLi11EE8getValueEh NONAME
    _ZN16ZCom_InterpolateIjLi11EE8packDataEP14ZCom_BitStream NONAME
    _ZN16ZCom_InterpolateIjLi11EE8peekDataEv NONAME
    _ZN16ZCom_InterpolateIjLi11EE8setValueEPj NONAME
    _ZN16ZCom_InterpolateIjLi11EE8setValueEhj NONAME
    _ZN16ZCom_InterpolateIjLi11EE9setRecValEhj NONAME
    _ZN16ZCom_InterpolateIjLi11EEC1EPjP22ZCom_RSetupInterpolateIjE NONAME
    _ZN16ZCom_InterpolateIjLi11EEC1EPjhhhjS1_hssf NONAME
    _ZN16ZCom_InterpolateIjLi11EEC2EPjP22ZCom_RSetupInterpolateIjE NONAME
    _ZN16ZCom_InterpolateIjLi11EEC2EPjhhhjS1_hssf NONAME
    _ZN16ZCom_InterpolateIjLi11EED0Ev NONAME
    _ZN16ZCom_InterpolateIjLi11EED1Ev NONAME
    _ZN16ZCom_InterpolateIjLi11EED2Ev NONAME
    _ZN16ZCom_InterpolateIjLi12EE10checkStateEv NONAME
    _ZN16ZCom_InterpolateIjLi12EE10unpackDataEP14ZCom_BitStreambj NONAME
    _ZN16ZCom_InterpolateIjLi12EE12getRecValPtrEh NONAME
    _ZN16ZCom_InterpolateIjLi12EE13clearPeekDataEv NONAME
    _ZN16ZCom_InterpolateIjLi12EE7ProcessE14eZCom_NodeRolej NONAME
    _ZN16ZCom_InterpolateIjLi12EE8getValueEh NONAME
    _ZN16ZCom_InterpolateIjLi12EE8packDataEP14ZCom_BitStream NONAME
    _ZN16ZCom_InterpolateIjLi12EE8peekDataEv NONAME
    _ZN16ZCom_InterpolateIjLi12EE8setValueEPj NONAME
    _ZN16ZCom_InterpolateIjLi12EE8setValueEhj NONAME
    _ZN16ZCom_InterpolateIjLi12EE9setRecValEhj NONAME
    _ZN16ZCom_InterpolateIjLi12EEC1EPjP22ZCom_RSetupInterpolateIjE NONAME
    _ZN16ZCom_InterpolateIjLi12EEC1EPjhhhjS1_hssf NONAME
    _ZN16ZCom_InterpolateIjLi12EEC2EPjP22ZCom_RSetupInterpolateIjE NONAME
    _ZN16ZCom_InterpolateIjLi12EEC2EPjhhhjS1_hssf NONAME
    _ZN16ZCom_InterpolateIjLi12EED0Ev NONAME
    _ZN16ZCom_InterpolateIjLi12EED1Ev NONAME
    _ZN16ZCom_InterpolateIjLi12EED2Ev NONAME
    _ZN16ZCom_InterpolateIjLi1EE10checkStateEv NONAME
    _ZN16ZCom_InterpolateIjLi1EE10unpackDataEP14ZCom_BitStreambj NONAME
    _ZN16ZCom_InterpolateIjLi1EE12getRecValPtrEh NONAME
    _ZN16ZCom_InterpolateIjLi1EE13clearPeekDataEv NONAME
    _ZN16ZCom_InterpolateIjLi1EE7ProcessE14eZCom_NodeRolej NONAME
    _ZN16ZCom_InterpolateIjLi1EE8getValueEh NONAME
    _ZN16ZCom_InterpolateIjLi1EE8packDataEP14ZCom_BitStream NONAME
    _ZN16ZCom_InterpolateIjLi1EE8peekDataEv NONAME
    _ZN16ZCom_InterpolateIjLi1EE8setValueEPj NONAME
    _ZN16ZCom_InterpolateIjLi1EE8setValueEhj NONAME
    _ZN16ZCom_InterpolateIjLi1EE9setRecValEhj NONAME
    _ZN16ZCom_InterpolateIjLi1EEC1EPjP22ZCom_RSetupInterpolateIjE NONAME
    _ZN16ZCom_InterpolateIjLi1EEC1EPjhhhjS1_hssf NONAME
    _ZN16ZCom_InterpolateIjLi1EEC2EPjP22ZCom_RSetupInterpolateIjE NONAME
    _ZN16ZCom_InterpolateIjLi1EEC2EPjhhhjS1_hssf NONAME
    _ZN16ZCom_InterpolateIjLi1EED0Ev NONAME
    _ZN16ZCom_InterpolateIjLi1EED1Ev NONAME
    _ZN16ZCom_InterpolateIjLi1EED2Ev NONAME
    _ZN16ZCom_InterpolateIjLi2EE10checkStateEv NONAME
    _ZN16ZCom_InterpolateIjLi2EE10unpackDataEP14ZCom_BitStreambj NONAME
    _ZN16ZCom_InterpolateIjLi2EE12getRecValPtrEh NONAME
    _ZN16ZCom_InterpolateIjLi2EE13clearPeekDataEv NONAME
    _ZN16ZCom_InterpolateIjLi2EE7ProcessE14eZCom_NodeRolej NONAME
    _ZN16ZCom_InterpolateIjLi2EE8getValueEh NONAME
    _ZN16ZCom_InterpolateIjLi2EE8packDataEP14ZCom_BitStream NONAME
    _ZN16ZCom_InterpolateIjLi2EE8peekDataEv NONAME
    _ZN16ZCom_InterpolateIjLi2EE8setValueEPj NONAME
    _ZN16ZCom_InterpolateIjLi2EE8setValueEhj NONAME
    _ZN16ZCom_InterpolateIjLi2EE9setRecValEhj NONAME
    _ZN16ZCom_InterpolateIjLi2EEC1EPjP22ZCom_RSetupInterpolateIjE NONAME
    _ZN16ZCom_InterpolateIjLi2EEC1EPjhhhjS1_hssf NONAME
    _ZN16ZCom_InterpolateIjLi2EEC2EPjP22ZCom_RSetupInterpolateIjE NONAME
    _ZN16ZCom_InterpolateIjLi2EEC2EPjhhhjS1_hssf NONAME
    _ZN16ZCom_InterpolateIjLi2EED0Ev NONAME
    _ZN16ZCom_InterpolateIjLi2EED1Ev NONAME
    _ZN16ZCom_InterpolateIjLi2EED2Ev NONAME
    _ZN16ZCom_InterpolateIjLi3EE10checkStateEv NONAME
    _ZN16ZCom_InterpolateIjLi3EE10unpackDataEP14ZCom_BitStreambj NONAME
    _ZN16ZCom_InterpolateIjLi3EE12getRecValPtrEh NONAME
    _ZN16ZCom_InterpolateIjLi3EE13clearPeekDataEv NONAME
    _ZN16ZCom_InterpolateIjLi3EE7ProcessE14eZCom_NodeRolej NONAME
    _ZN16ZCom_InterpolateIjLi3EE8getValueEh NONAME
    _ZN16ZCom_InterpolateIjLi3EE8packDataEP14ZCom_BitStream NONAME
    _ZN16ZCom_InterpolateIjLi3EE8peekDataEv NONAME
    _ZN16ZCom_InterpolateIjLi3EE8setValueEPj NONAME
    _ZN16ZCom_InterpolateIjLi3EE8setValueEhj NONAME
    _ZN16ZCom_InterpolateIjLi3EE9setRecValEhj NONAME
    _ZN16ZCom_InterpolateIjLi3EEC1EPjP22ZCom_RSetupInterpolateIjE NONAME
    _ZN16ZCom_InterpolateIjLi3EEC1EPjhhhjS1_hssf NONAME
    _ZN16ZCom_InterpolateIjLi3EEC2EPjP22ZCom_RSetupInterpolateIjE NONAME
    _ZN16ZCom_InterpolateIjLi3EEC2EPjhhhjS1_hssf NONAME
    _ZN16ZCom_InterpolateIjLi3EED0Ev NONAME
    _ZN16ZCom_InterpolateIjLi3EED1Ev NONAME
    _ZN16ZCom_InterpolateIjLi3EED2Ev NONAME
    _ZN16ZCom_InterpolateIjLi4EE10checkStateEv NONAME
    _ZN16ZCom_InterpolateIjLi4EE10unpackDataEP14ZCom_BitStreambj NONAME
    _ZN16ZCom_InterpolateIjLi4EE12getRecValPtrEh NONAME
    _ZN16ZCom_InterpolateIjLi4EE13clearPeekDataEv NONAME
    _ZN16ZCom_InterpolateIjLi4EE7ProcessE14eZCom_NodeRolej NONAME
    _ZN16ZCom_InterpolateIjLi4EE8getValueEh NONAME
    _ZN16ZCom_InterpolateIjLi4EE8packDataEP14ZCom_BitStream NONAME
    _ZN16ZCom_InterpolateIjLi4EE8peekDataEv NONAME
    _ZN16ZCom_InterpolateIjLi4EE8setValueEPj NONAME
    _ZN16ZCom_InterpolateIjLi4EE8setValueEhj NONAME
    _ZN16ZCom_InterpolateIjLi4EE9setRecValEhj NONAME
    _ZN16ZCom_InterpolateIjLi4EEC1EPjP22ZCom_RSetupInterpolateIjE NONAME
    _ZN16ZCom_InterpolateIjLi4EEC1EPjhhhjS1_hssf NONAME
    _ZN16ZCom_InterpolateIjLi4EEC2EPjP22ZCom_RSetupInterpolateIjE NONAME
    _ZN16ZCom_InterpolateIjLi4EEC2EPjhhhjS1_hssf NONAME
    _ZN16ZCom_InterpolateIjLi4EED0Ev NONAME
    _ZN16ZCom_InterpolateIjLi4EED1Ev NONAME
    _ZN16ZCom_InterpolateIjLi4EED2Ev NONAME
    _ZN16ZCom_InterpolateIjLi5EE10checkStateEv NONAME
    _ZN16ZCom_InterpolateIjLi5EE10unpackDataEP14ZCom_BitStreambj NONAME
    _ZN16ZCom_InterpolateIjLi5EE12getRecValPtrEh NONAME
    _ZN16ZCom_InterpolateIjLi5EE13clearPeekDataEv NONAME
    _ZN16ZCom_InterpolateIjLi5EE7ProcessE14eZCom_NodeRolej NONAME
    _ZN16ZCom_InterpolateIjLi5EE8getValueEh NONAME
    _ZN16ZCom_InterpolateIjLi5EE8packDataEP14ZCom_BitStream NONAME
    _ZN16ZCom_InterpolateIjLi5EE8peekDataEv NONAME
    _ZN16ZCom_InterpolateIjLi5EE8setValueEPj NONAME
    _ZN16ZCom_InterpolateIjLi5EE8setValueEhj NONAME
    _ZN16ZCom_InterpolateIjLi5EE9setRecValEhj NONAME
    _ZN16ZCom_InterpolateIjLi5EEC1EPjP22ZCom_RSetupInterpolateIjE NONAME
    _ZN16ZCom_InterpolateIjLi5EEC1EPjhhhjS1_hssf NONAME
    _ZN16ZCom_InterpolateIjLi5EEC2EPjP22ZCom_RSetupInterpolateIjE NONAME
    _ZN16ZCom_InterpolateIjLi5EEC2EPjhhhjS1_hssf NONAME
    _ZN16ZCom_InterpolateIjLi5EED0Ev NONAME
    _ZN16ZCom_InterpolateIjLi5EED1Ev NONAME
    _ZN16ZCom_InterpolateIjLi5EED2Ev NONAME
    _ZN16ZCom_InterpolateIjLi6EE10checkStateEv NONAME
    _ZN16ZCom_InterpolateIjLi6EE10unpackDataEP14ZCom_BitStreambj NONAME
    _ZN16ZCom_InterpolateIjLi6EE12getRecValPtrEh NONAME
    _ZN16ZCom_InterpolateIjLi6EE13clearPeekDataEv NONAME
    _ZN16ZCom_InterpolateIjLi6EE7ProcessE14eZCom_NodeRolej NONAME
    _ZN16ZCom_InterpolateIjLi6EE8getValueEh NONAME
    _ZN16ZCom_InterpolateIjLi6EE8packDataEP14ZCom_BitStream NONAME
    _ZN16ZCom_InterpolateIjLi6EE8peekDataEv NONAME
    _ZN16ZCom_InterpolateIjLi6EE8setValueEPj NONAME
    _ZN16ZCom_InterpolateIjLi6EE8setValueEhj NONAME
    _ZN16ZCom_InterpolateIjLi6EE9setRecValEhj NONAME
    _ZN16ZCom_InterpolateIjLi6EEC1EPjP22ZCom_RSetupInterpolateIjE NONAME
    _ZN16ZCom_InterpolateIjLi6EEC1EPjhhhjS1_hssf NONAME
    _ZN16ZCom_InterpolateIjLi6EEC2EPjP22ZCom_RSetupInterpolateIjE NONAME
    _ZN16ZCom_InterpolateIjLi6EEC2EPjhhhjS1_hssf NONAME
    _ZN16ZCom_InterpolateIjLi6EED0Ev NONAME
    _ZN16ZCom_InterpolateIjLi6EED1Ev NONAME
    _ZN16ZCom_InterpolateIjLi6EED2Ev NONAME
    _ZN16ZCom_InterpolateIjLi7EE10checkStateEv NONAME
    _ZN16ZCom_InterpolateIjLi7EE10unpackDataEP14ZCom_BitStreambj NONAME
    _ZN16ZCom_InterpolateIjLi7EE12getRecValPtrEh NONAME
    _ZN16ZCom_InterpolateIjLi7EE13clearPeekDataEv NONAME
    _ZN16ZCom_InterpolateIjLi7EE7ProcessE14eZCom_NodeRolej NONAME
    _ZN16ZCom_InterpolateIjLi7EE8getValueEh NONAME
    _ZN16ZCom_InterpolateIjLi7EE8packDataEP14ZCom_BitStream NONAME
    _ZN16ZCom_InterpolateIjLi7EE8peekDataEv NONAME
    _ZN16ZCom_InterpolateIjLi7EE8setValueEPj NONAME
    _ZN16ZCom_InterpolateIjLi7EE8setValueEhj NONAME
    _ZN16ZCom_InterpolateIjLi7EE9setRecValEhj NONAME
    _ZN16ZCom_InterpolateIjLi7EEC1EPjP22ZCom_RSetupInterpolateIjE NONAME
    _ZN16ZCom_InterpolateIjLi7EEC1EPjhhhjS1_hssf NONAME
    _ZN16ZCom_InterpolateIjLi7EEC2EPjP22ZCom_RSetupInterpolateIjE NONAME
    _ZN16ZCom_InterpolateIjLi7EEC2EPjhhhjS1_hssf NONAME
    _ZN16ZCom_InterpolateIjLi7EED0Ev NONAME
    _ZN16ZCom_InterpolateIjLi7EED1Ev NONAME
    _ZN16ZCom_InterpolateIjLi7EED2Ev NONAME
    _ZN16ZCom_InterpolateIjLi8EE10checkStateEv NONAME
    _ZN16ZCom_InterpolateIjLi8EE10unpackDataEP14ZCom_BitStreambj NONAME
    _ZN16ZCom_InterpolateIjLi8EE12getRecValPtrEh NONAME
    _ZN16ZCom_InterpolateIjLi8EE13clearPeekDataEv NONAME
    _ZN16ZCom_InterpolateIjLi8EE7ProcessE14eZCom_NodeRolej NONAME
    _ZN16ZCom_InterpolateIjLi8EE8getValueEh NONAME
    _ZN16ZCom_InterpolateIjLi8EE8packDataEP14ZCom_BitStream NONAME
    _ZN16ZCom_InterpolateIjLi8EE8peekDataEv NONAME
    _ZN16ZCom_InterpolateIjLi8EE8setValueEPj NONAME
    _ZN16ZCom_InterpolateIjLi8EE8setValueEhj NONAME
    _ZN16ZCom_InterpolateIjLi8EE9setRecValEhj NONAME
    _ZN16ZCom_InterpolateIjLi8EEC1EPjP22ZCom_RSetupInterpolateIjE NONAME
    _ZN16ZCom_InterpolateIjLi8EEC1EPjhhhjS1_hssf NONAME
    _ZN16ZCom_InterpolateIjLi8EEC2EPjP22ZCom_RSetupInterpolateIjE NONAME
    _ZN16ZCom_InterpolateIjLi8EEC2EPjhhhjS1_hssf NONAME
    _ZN16ZCom_InterpolateIjLi8EED0Ev NONAME
    _ZN16ZCom_InterpolateIjLi8EED1Ev NONAME
    _ZN16ZCom_InterpolateIjLi8EED2Ev NONAME
    _ZN16ZCom_InterpolateIjLi9EE10checkStateEv NONAME
    _ZN16ZCom_InterpolateIjLi9EE10unpackDataEP14ZCom_BitStreambj NONAME
    _ZN16ZCom_InterpolateIjLi9EE12getRecValPtrEh NONAME
    _ZN16ZCom_InterpolateIjLi9EE13clearPeekDataEv NONAME
    _ZN16ZCom_InterpolateIjLi9EE7ProcessE14eZCom_NodeRolej NONAME
    _ZN16ZCom_InterpolateIjLi9EE8getValueEh NONAME
    _ZN16ZCom_InterpolateIjLi9EE8packDataEP14ZCom_BitStream NONAME
    _ZN16ZCom_InterpolateIjLi9EE8peekDataEv NONAME
    _ZN16ZCom_InterpolateIjLi9EE8setValueEPj NONAME
    _ZN16ZCom_InterpolateIjLi9EE8setValueEhj NONAME
    _ZN16ZCom_InterpolateIjLi9EE9setRecValEhj NONAME
    _ZN16ZCom_InterpolateIjLi9EEC1EPjP22ZCom_RSetupInterpolateIjE NONAME
    _ZN16ZCom_InterpolateIjLi9EEC1EPjhhhjS1_hssf NONAME
    _ZN16ZCom_InterpolateIjLi9EEC2EPjP22ZCom_RSetupInterpolateIjE NONAME
    _ZN16ZCom_InterpolateIjLi9EEC2EPjhhhjS1_hssf NONAME
    _ZN16ZCom_InterpolateIjLi9EED0Ev NONAME
    _ZN16ZCom_InterpolateIjLi9EED1Ev NONAME
    _ZN16ZCom_InterpolateIjLi9EED2Ev NONAME
    _ZN17ZCom_RSetupString9DuplicateEv NONAME
    _ZN18ZCom_RSetupNumeric9DuplicateEv NONAME
    _ZN18ZCom_RSetupNumericC1Ehhhhss NONAME
    _ZN18ZCom_RSetupNumericC2Ehhhhss NONAME
    _ZN18ZCom_RSetupNumericD0Ev NONAME
    _ZN18ZCom_RSetupNumericD1Ev NONAME
    _ZN19ZCom_RSetupMovementIfE9DuplicateEv NONAME
    _ZN19ZCom_RSetupMovementIfEC1Ehhhhss NONAME
    _ZN19ZCom_RSetupMovementIfEC2Ehhhhss NONAME
    _ZN19ZCom_RSetupMovementIiE9DuplicateEv NONAME
    _ZN19ZCom_RSetupMovementIiEC1Ehhhhss NONAME
    _ZN19ZCom_RSetupMovementIiEC2Ehhhhss NONAME
    _ZN19ZCom_RSetupMovementIjE9DuplicateEv NONAME
    _ZN19ZCom_RSetupMovementIjEC1Ehhhhss NONAME
    _ZN19ZCom_RSetupMovementIjEC2Ehhhhss NONAME
    _ZN19ZCom_Replicate_Bool10checkStateEv NONAME
    _ZN19ZCom_Replicate_Bool10unpackDataEP14ZCom_BitStreambj NONAME
    _ZN19ZCom_Replicate_Bool13clearPeekDataEv NONAME
    _ZN19ZCom_Replicate_Bool7ProcessE14eZCom_NodeRolej NONAME
    _ZN19ZCom_Replicate_Bool8packDataEP14ZCom_BitStream NONAME
    _ZN19ZCom_Replicate_Bool8peekDataEv NONAME
    _ZN19ZCom_Replicate_BoolC1Ebhhhss NONAME
    _ZN19ZCom_Replicate_BoolC2Ebhhhss NONAME
    _ZN20ZCom_Replicate_Boolp10checkStateEv NONAME
    _ZN20ZCom_Replicate_Boolp10unpackDataEP14ZCom_BitStreambj NONAME
    _ZN20ZCom_Replicate_Boolp13clearPeekDataEv NONAME
    _ZN20ZCom_Replicate_Boolp7ProcessE14eZCom_NodeRolej NONAME
    _ZN20ZCom_Replicate_Boolp8packDataEP14ZCom_BitStream NONAME
    _ZN20ZCom_Replicate_Boolp8peekDataEv NONAME
    _ZN20ZCom_Replicate_BoolpC1EPbhhhss NONAME
    _ZN20ZCom_Replicate_BoolpC2EPbhhhss NONAME
    _ZN20ZCom_ReplicatorBasicC1EP20ZCom_ReplicatorSetup NONAME
    _ZN20ZCom_ReplicatorBasicC2EP20ZCom_ReplicatorSetup NONAME
    _ZN20ZCom_ReplicatorBasicD0Ev NONAME
    _ZN20ZCom_ReplicatorBasicD1Ev NONAME
    _ZN20ZCom_ReplicatorSetup9DuplicateEv NONAME
    _ZN20ZCom_ReplicatorSetupC1Ehh NONAME
    _ZN20ZCom_ReplicatorSetupC1Ehhhss NONAME
    _ZN20ZCom_ReplicatorSetupC2Ehh NONAME
    _ZN20ZCom_ReplicatorSetupC2Ehhhss NONAME
    _ZN20ZCom_ReplicatorSetupD0Ev NONAME
    _ZN20ZCom_ReplicatorSetupD1Ev NONAME
    _ZN20ZCom_ReplicatorSetupD2Ev NONAME
    _ZN20ZCom_ReplicatorSetupdlEPv NONAME
    _ZN20ZCom_ReplicatorSetupnwEj NONAME
    _ZN20ZCom_ReplicatorValueIPfLi10EE7getDataEv NONAME
    _ZN20ZCom_ReplicatorValueIPfLi11EE7getDataEv NONAME
    _ZN20ZCom_ReplicatorValueIPfLi12EE7getDataEv NONAME
    _ZN20ZCom_ReplicatorValueIPfLi1EE7getDataEv NONAME
    _ZN20ZCom_ReplicatorValueIPfLi2EE7getDataEv NONAME
    _ZN20ZCom_ReplicatorValueIPfLi3EE7getDataEv NONAME
    _ZN20ZCom_ReplicatorValueIPfLi4EE7getDataEv NONAME
    _ZN20ZCom_ReplicatorValueIPfLi5EE7getDataEv NONAME
    _ZN20ZCom_ReplicatorValueIPfLi6EE7getDataEv NONAME
    _ZN20ZCom_ReplicatorValueIPfLi7EE7getDataEv NONAME
    _ZN20ZCom_ReplicatorValueIPfLi8EE7getDataEv NONAME
    _ZN20ZCom_ReplicatorValueIPfLi9EE7getDataEv NONAME
    _ZN20ZCom_ReplicatorValueIPiLi10EE7getDataEv NONAME
    _ZN20ZCom_ReplicatorValueIPiLi11EE7getDataEv NONAME
    _ZN20ZCom_ReplicatorValueIPiLi12EE7getDataEv NONAME
    _ZN20ZCom_ReplicatorValueIPiLi1EE7getDataEv NONAME
    _ZN20ZCom_ReplicatorValueIPiLi2EE7getDataEv NONAME
    _ZN20ZCom_ReplicatorValueIPiLi3EE7getDataEv NONAME
    _ZN20ZCom_ReplicatorValueIPiLi4EE7getDataEv NONAME
    _ZN20ZCom_ReplicatorValueIPiLi5EE7getDataEv NONAME
    _ZN20ZCom_ReplicatorValueIPiLi6EE7getDataEv NONAME
    _ZN20ZCom_ReplicatorValueIPiLi7EE7getDataEv NONAME
    _ZN20ZCom_ReplicatorValueIPiLi8EE7getDataEv NONAME
    _ZN20ZCom_ReplicatorValueIPiLi9EE7getDataEv NONAME
    _ZN20ZCom_ReplicatorValueIPjLi10EE7getDataEv NONAME
    _ZN20ZCom_ReplicatorValueIPjLi11EE7getDataEv NONAME
    _ZN20ZCom_ReplicatorValueIPjLi12EE7getDataEv NONAME
    _ZN20ZCom_ReplicatorValueIPjLi1EE7getDataEv NONAME
    _ZN20ZCom_ReplicatorValueIPjLi2EE7getDataEv NONAME
    _ZN20ZCom_ReplicatorValueIPjLi3EE7getDataEv NONAME
    _ZN20ZCom_ReplicatorValueIPjLi4EE7getDataEv NONAME
    _ZN20ZCom_ReplicatorValueIPjLi5EE7getDataEv NONAME
    _ZN20ZCom_ReplicatorValueIPjLi6EE7getDataEv NONAME
    _ZN20ZCom_ReplicatorValueIPjLi7EE7getDataEv NONAME
    _ZN20ZCom_ReplicatorValueIPjLi8EE7getDataEv NONAME
    _ZN20ZCom_ReplicatorValueIPjLi9EE7getDataEv NONAME
    _ZN20ZCom_ReplicatorValueIfLi10EE7getDataEv NONAME
    _ZN20ZCom_ReplicatorValueIfLi11EE7getDataEv NONAME
    _ZN20ZCom_ReplicatorValueIfLi12EE7getDataEv NONAME
    _ZN20ZCom_ReplicatorValueIfLi1EE7getDataEv NONAME
    _ZN20ZCom_ReplicatorValueIfLi2EE7getDataEv NONAME
    _ZN20ZCom_ReplicatorValueIfLi3EE7getDataEv NONAME
    _ZN20ZCom_ReplicatorValueIfLi4EE7getDataEv NONAME
    _ZN20ZCom_ReplicatorValueIfLi5EE7getDataEv NONAME
    _ZN20ZCom_ReplicatorValueIfLi6EE7getDataEv NONAME
    _ZN20ZCom_ReplicatorValueIfLi7EE7getDataEv NONAME
    _ZN20ZCom_ReplicatorValueIfLi8EE7getDataEv NONAME
    _ZN20ZCom_ReplicatorValueIfLi9EE7getDataEv NONAME
    _ZN20ZCom_ReplicatorValueIiLi10EE7getDataEv NONAME
    _ZN20ZCom_ReplicatorValueIiLi11EE7getDataEv NONAME
    _ZN20ZCom_ReplicatorValueIiLi12EE7getDataEv NONAME
    _ZN20ZCom_ReplicatorValueIiLi1EE7getDataEv NONAME
    _ZN20ZCom_ReplicatorValueIiLi2EE7getDataEv NONAME
    _ZN20ZCom_ReplicatorValueIiLi3EE7getDataEv NONAME
    _ZN20ZCom_ReplicatorValueIiLi4EE7getDataEv NONAME
    _ZN20ZCom_ReplicatorValueIiLi5EE7getDataEv NONAME
    _ZN20ZCom_ReplicatorValueIiLi6EE7getDataEv NONAME
    _ZN20ZCom_ReplicatorValueIiLi7EE7getDataEv NONAME
    _ZN20ZCom_ReplicatorValueIiLi8EE7getDataEv NONAME
    _ZN20ZCom_ReplicatorValueIiLi9EE7getDataEv NONAME
    _ZN20ZCom_ReplicatorValueIjLi10EE7getDataEv NONAME
    _ZN20ZCom_ReplicatorValueIjLi11EE7getDataEv NONAME
    _ZN20ZCom_ReplicatorValueIjLi12EE7getDataEv NONAME
    _ZN20ZCom_ReplicatorValueIjLi1EE7getDataEv NONAME
    _ZN20ZCom_ReplicatorValueIjLi2EE7getDataEv NONAME
    _ZN20ZCom_ReplicatorValueIjLi3EE7getDataEv NONAME
    _ZN20ZCom_ReplicatorValueIjLi4EE7getDataEv NONAME
    _ZN20ZCom_ReplicatorValueIjLi5EE7getDataEv NONAME
    _ZN20ZCom_ReplicatorValueIjLi6EE7getDataEv NONAME
    _ZN20ZCom_ReplicatorValueIjLi7EE7getDataEv NONAME
    _ZN20ZCom_ReplicatorValueIjLi8EE7getDataEv NONAME
    _ZN20ZCom_ReplicatorValueIjLi9EE7getDataEv NONAME
    _ZN21ZCom_ConnGroupManager11createGroupEj NONAME
    _ZN21ZCom_ConnGroupManager12destroyGroupEj NONAME
    _ZN21ZCom_ConnGroupManager12getGroupSizeEj NONAME
    _ZN21ZCom_ConnGroupManager13addConnectionEjj NONAME
    _ZN21ZCom_ConnGroupManager16checkGroupExistsEj NONAME
    _ZN21ZCom_ConnGroupManager16removeConnectionEjj NONAME
    _ZN21ZCom_ConnGroupManager17getNextConnectionEjRj NONAME
    _ZN21ZCom_ConnGroupManager18getFirstConnectionEjRj NONAME
    _ZN21ZCom_ConnGroupManager5ClearEv NONAME
    _ZN21ZCom_ConnGroupManagerC1Ev NONAME
    _ZN21ZCom_ConnGroupManagerC2Ev NONAME
    _ZN21ZCom_ConnGroupManagerD1Ev NONAME
    _ZN21ZCom_ConnGroupManagerD2Ev NONAME
    _ZN22ZCom_RSetupInterpolateIfE9DuplicateEv NONAME
    _ZN22ZCom_RSetupInterpolateIfEC1Ehhhfhssf NONAME
    _ZN22ZCom_RSetupInterpolateIiE9DuplicateEv NONAME
    _ZN22ZCom_RSetupInterpolateIiEC1Ehhhihssf NONAME
    _ZN22ZCom_RSetupInterpolateIjE9DuplicateEv NONAME
    _ZN22ZCom_RSetupInterpolateIjEC1Ehhhjhssf NONAME
    _ZN22ZCom_Replicate_NumericIPfLi10EE10checkStateEv NONAME
    _ZN22ZCom_Replicate_NumericIPfLi10EE10unpackDataEP14ZCom_BitStreambj NONAME
    _ZN22ZCom_Replicate_NumericIPfLi10EE13clearPeekDataEv NONAME
    _ZN22ZCom_Replicate_NumericIPfLi10EE7ProcessE14eZCom_NodeRolej NONAME
    _ZN22ZCom_Replicate_NumericIPfLi10EE8getValueEh NONAME
    _ZN22ZCom_Replicate_NumericIPfLi10EE8getValueEv NONAME
    _ZN22ZCom_Replicate_NumericIPfLi10EE8packDataEP14ZCom_BitStream NONAME
    _ZN22ZCom_Replicate_NumericIPfLi10EE8peekDataEv NONAME
    _ZN22ZCom_Replicate_NumericIPfLi10EE8setValueES0_ NONAME
    _ZN22ZCom_Replicate_NumericIPfLi10EE8setValueEhf NONAME
    _ZN22ZCom_Replicate_NumericIPfLi10EEC1ES0_P18ZCom_RSetupNumeric NONAME
    _ZN22ZCom_Replicate_NumericIPfLi10EEC1ES0_hhhhss NONAME
    _ZN22ZCom_Replicate_NumericIPfLi10EEC2ES0_P18ZCom_RSetupNumeric NONAME
    _ZN22ZCom_Replicate_NumericIPfLi10EEC2ES0_hhhhss NONAME
    _ZN22ZCom_Replicate_NumericIPfLi10EED0Ev NONAME
    _ZN22ZCom_Replicate_NumericIPfLi10EED1Ev NONAME
    _ZN22ZCom_Replicate_NumericIPfLi10EED2Ev NONAME
    _ZN22ZCom_Replicate_NumericIPfLi11EE10checkStateEv NONAME
    _ZN22ZCom_Replicate_NumericIPfLi11EE10unpackDataEP14ZCom_BitStreambj NONAME
    _ZN22ZCom_Replicate_NumericIPfLi11EE13clearPeekDataEv NONAME
    _ZN22ZCom_Replicate_NumericIPfLi11EE7ProcessE14eZCom_NodeRolej NONAME
    _ZN22ZCom_Replicate_NumericIPfLi11EE8getValueEh NONAME
    _ZN22ZCom_Replicate_NumericIPfLi11EE8getValueEv NONAME
    _ZN22ZCom_Replicate_NumericIPfLi11EE8packDataEP14ZCom_BitStream NONAME
    _ZN22ZCom_Replicate_NumericIPfLi11EE8peekDataEv NONAME
    _ZN22ZCom_Replicate_NumericIPfLi11EE8setValueES0_ NONAME
    _ZN22ZCom_Replicate_NumericIPfLi11EE8setValueEhf NONAME
    _ZN22ZCom_Replicate_NumericIPfLi11EEC1ES0_P18ZCom_RSetupNumeric NONAME
    _ZN22ZCom_Replicate_NumericIPfLi11EEC1ES0_hhhhss NONAME
    _ZN22ZCom_Replicate_NumericIPfLi11EEC2ES0_P18ZCom_RSetupNumeric NONAME
    _ZN22ZCom_Replicate_NumericIPfLi11EEC2ES0_hhhhss NONAME
    _ZN22ZCom_Replicate_NumericIPfLi11EED0Ev NONAME
    _ZN22ZCom_Replicate_NumericIPfLi11EED1Ev NONAME
    _ZN22ZCom_Replicate_NumericIPfLi11EED2Ev NONAME
    _ZN22ZCom_Replicate_NumericIPfLi12EE10checkStateEv NONAME
    _ZN22ZCom_Replicate_NumericIPfLi12EE10unpackDataEP14ZCom_BitStreambj NONAME
    _ZN22ZCom_Replicate_NumericIPfLi12EE13clearPeekDataEv NONAME
    _ZN22ZCom_Replicate_NumericIPfLi12EE7ProcessE14eZCom_NodeRolej NONAME
    _ZN22ZCom_Replicate_NumericIPfLi12EE8getValueEh NONAME
    _ZN22ZCom_Replicate_NumericIPfLi12EE8getValueEv NONAME
    _ZN22ZCom_Replicate_NumericIPfLi12EE8packDataEP14ZCom_BitStream NONAME
    _ZN22ZCom_Replicate_NumericIPfLi12EE8peekDataEv NONAME
    _ZN22ZCom_Replicate_NumericIPfLi12EE8setValueES0_ NONAME
    _ZN22ZCom_Replicate_NumericIPfLi12EE8setValueEhf NONAME
    _ZN22ZCom_Replicate_NumericIPfLi12EEC1ES0_P18ZCom_RSetupNumeric NONAME
    _ZN22ZCom_Replicate_NumericIPfLi12EEC1ES0_hhhhss NONAME
    _ZN22ZCom_Replicate_NumericIPfLi12EEC2ES0_P18ZCom_RSetupNumeric NONAME
    _ZN22ZCom_Replicate_NumericIPfLi12EEC2ES0_hhhhss NONAME
    _ZN22ZCom_Replicate_NumericIPfLi12EED0Ev NONAME
    _ZN22ZCom_Replicate_NumericIPfLi12EED1Ev NONAME
    _ZN22ZCom_Replicate_NumericIPfLi12EED2Ev NONAME
    _ZN22ZCom_Replicate_NumericIPfLi1EE10checkStateEv NONAME
    _ZN22ZCom_Replicate_NumericIPfLi1EE10unpackDataEP14ZCom_BitStreambj NONAME
    _ZN22ZCom_Replicate_NumericIPfLi1EE13clearPeekDataEv NONAME
    _ZN22ZCom_Replicate_NumericIPfLi1EE7ProcessE14eZCom_NodeRolej NONAME
    _ZN22ZCom_Replicate_NumericIPfLi1EE8getValueEh NONAME
    _ZN22ZCom_Replicate_NumericIPfLi1EE8getValueEv NONAME
    _ZN22ZCom_Replicate_NumericIPfLi1EE8packDataEP14ZCom_BitStream NONAME
    _ZN22ZCom_Replicate_NumericIPfLi1EE8peekDataEv NONAME
    _ZN22ZCom_Replicate_NumericIPfLi1EE8setValueES0_ NONAME
    _ZN22ZCom_Replicate_NumericIPfLi1EE8setValueEhf NONAME
    _ZN22ZCom_Replicate_NumericIPfLi1EEC1ES0_P18ZCom_RSetupNumeric NONAME
    _ZN22ZCom_Replicate_NumericIPfLi1EEC1ES0_hhhhss NONAME
    _ZN22ZCom_Replicate_NumericIPfLi1EEC2ES0_P18ZCom_RSetupNumeric NONAME
    _ZN22ZCom_Replicate_NumericIPfLi1EEC2ES0_hhhhss NONAME
    _ZN22ZCom_Replicate_NumericIPfLi1EED0Ev NONAME
    _ZN22ZCom_Replicate_NumericIPfLi1EED1Ev NONAME
    _ZN22ZCom_Replicate_NumericIPfLi1EED2Ev NONAME
    _ZN22ZCom_Replicate_NumericIPfLi2EE10checkStateEv NONAME
    _ZN22ZCom_Replicate_NumericIPfLi2EE10unpackDataEP14ZCom_BitStreambj NONAME
    _ZN22ZCom_Replicate_NumericIPfLi2EE13clearPeekDataEv NONAME
    _ZN22ZCom_Replicate_NumericIPfLi2EE7ProcessE14eZCom_NodeRolej NONAME
    _ZN22ZCom_Replicate_NumericIPfLi2EE8getValueEh NONAME
    _ZN22ZCom_Replicate_NumericIPfLi2EE8getValueEv NONAME
    _ZN22ZCom_Replicate_NumericIPfLi2EE8packDataEP14ZCom_BitStream NONAME
    _ZN22ZCom_Replicate_NumericIPfLi2EE8peekDataEv NONAME
    _ZN22ZCom_Replicate_NumericIPfLi2EE8setValueES0_ NONAME
    _ZN22ZCom_Replicate_NumericIPfLi2EE8setValueEhf NONAME
    _ZN22ZCom_Replicate_NumericIPfLi2EEC1ES0_P18ZCom_RSetupNumeric NONAME
    _ZN22ZCom_Replicate_NumericIPfLi2EEC1ES0_hhhhss NONAME
    _ZN22ZCom_Replicate_NumericIPfLi2EEC2ES0_P18ZCom_RSetupNumeric NONAME
    _ZN22ZCom_Replicate_NumericIPfLi2EEC2ES0_hhhhss NONAME
    _ZN22ZCom_Replicate_NumericIPfLi2EED0Ev NONAME
    _ZN22ZCom_Replicate_NumericIPfLi2EED1Ev NONAME
    _ZN22ZCom_Replicate_NumericIPfLi2EED2Ev NONAME
    _ZN22ZCom_Replicate_NumericIPfLi3EE10checkStateEv NONAME
    _ZN22ZCom_Replicate_NumericIPfLi3EE10unpackDataEP14ZCom_BitStreambj NONAME
    _ZN22ZCom_Replicate_NumericIPfLi3EE13clearPeekDataEv NONAME
    _ZN22ZCom_Replicate_NumericIPfLi3EE7ProcessE14eZCom_NodeRolej NONAME
    _ZN22ZCom_Replicate_NumericIPfLi3EE8getValueEh NONAME
    _ZN22ZCom_Replicate_NumericIPfLi3EE8getValueEv NONAME
    _ZN22ZCom_Replicate_NumericIPfLi3EE8packDataEP14ZCom_BitStream NONAME
    _ZN22ZCom_Replicate_NumericIPfLi3EE8peekDataEv NONAME
    _ZN22ZCom_Replicate_NumericIPfLi3EE8setValueES0_ NONAME
    _ZN22ZCom_Replicate_NumericIPfLi3EE8setValueEhf NONAME
    _ZN22ZCom_Replicate_NumericIPfLi3EEC1ES0_P18ZCom_RSetupNumeric NONAME
    _ZN22ZCom_Replicate_NumericIPfLi3EEC1ES0_hhhhss NONAME
    _ZN22ZCom_Replicate_NumericIPfLi3EEC2ES0_P18ZCom_RSetupNumeric NONAME
    _ZN22ZCom_Replicate_NumericIPfLi3EEC2ES0_hhhhss NONAME
    _ZN22ZCom_Replicate_NumericIPfLi3EED0Ev NONAME
    _ZN22ZCom_Replicate_NumericIPfLi3EED1Ev NONAME
    _ZN22ZCom_Replicate_NumericIPfLi3EED2Ev NONAME
    _ZN22ZCom_Replicate_NumericIPfLi4EE10checkStateEv NONAME
    _ZN22ZCom_Replicate_NumericIPfLi4EE10unpackDataEP14ZCom_BitStreambj NONAME
    _ZN22ZCom_Replicate_NumericIPfLi4EE13clearPeekDataEv NONAME
    _ZN22ZCom_Replicate_NumericIPfLi4EE7ProcessE14eZCom_NodeRolej NONAME
    _ZN22ZCom_Replicate_NumericIPfLi4EE8getValueEh NONAME
    _ZN22ZCom_Replicate_NumericIPfLi4EE8getValueEv NONAME
    _ZN22ZCom_Replicate_NumericIPfLi4EE8packDataEP14ZCom_BitStream NONAME
    _ZN22ZCom_Replicate_NumericIPfLi4EE8peekDataEv NONAME
    _ZN22ZCom_Replicate_NumericIPfLi4EE8setValueES0_ NONAME
    _ZN22ZCom_Replicate_NumericIPfLi4EE8setValueEhf NONAME
    _ZN22ZCom_Replicate_NumericIPfLi4EEC1ES0_P18ZCom_RSetupNumeric NONAME
    _ZN22ZCom_Replicate_NumericIPfLi4EEC1ES0_hhhhss NONAME
    _ZN22ZCom_Replicate_NumericIPfLi4EEC2ES0_P18ZCom_RSetupNumeric NONAME
    _ZN22ZCom_Replicate_NumericIPfLi4EEC2ES0_hhhhss NONAME
    _ZN22ZCom_Replicate_NumericIPfLi4EED0Ev NONAME
    _ZN22ZCom_Replicate_NumericIPfLi4EED1Ev NONAME
    _ZN22ZCom_Replicate_NumericIPfLi4EED2Ev NONAME
    _ZN22ZCom_Replicate_NumericIPfLi5EE10checkStateEv NONAME
    _ZN22ZCom_Replicate_NumericIPfLi5EE10unpackDataEP14ZCom_BitStreambj NONAME
    _ZN22ZCom_Replicate_NumericIPfLi5EE13clearPeekDataEv NONAME
    _ZN22ZCom_Replicate_NumericIPfLi5EE7ProcessE14eZCom_NodeRolej NONAME
    _ZN22ZCom_Replicate_NumericIPfLi5EE8getValueEh NONAME
    _ZN22ZCom_Replicate_NumericIPfLi5EE8getValueEv NONAME
    _ZN22ZCom_Replicate_NumericIPfLi5EE8packDataEP14ZCom_BitStream NONAME
    _ZN22ZCom_Replicate_NumericIPfLi5EE8peekDataEv NONAME
    _ZN22ZCom_Replicate_NumericIPfLi5EE8setValueES0_ NONAME
    _ZN22ZCom_Replicate_NumericIPfLi5EE8setValueEhf NONAME
    _ZN22ZCom_Replicate_NumericIPfLi5EEC1ES0_P18ZCom_RSetupNumeric NONAME
    _ZN22ZCom_Replicate_NumericIPfLi5EEC1ES0_hhhhss NONAME
    _ZN22ZCom_Replicate_NumericIPfLi5EEC2ES0_P18ZCom_RSetupNumeric NONAME
    _ZN22ZCom_Replicate_NumericIPfLi5EEC2ES0_hhhhss NONAME
    _ZN22ZCom_Replicate_NumericIPfLi5EED0Ev NONAME
    _ZN22ZCom_Replicate_NumericIPfLi5EED1Ev NONAME
    _ZN22ZCom_Replicate_NumericIPfLi5EED2Ev NONAME
    _ZN22ZCom_Replicate_NumericIPfLi6EE10checkStateEv NONAME
    _ZN22ZCom_Replicate_NumericIPfLi6EE10unpackDataEP14ZCom_BitStreambj NONAME
    _ZN22ZCom_Replicate_NumericIPfLi6EE13clearPeekDataEv NONAME
    _ZN22ZCom_Replicate_NumericIPfLi6EE7ProcessE14eZCom_NodeRolej NONAME
    _ZN22ZCom_Replicate_NumericIPfLi6EE8getValueEh NONAME
    _ZN22ZCom_Replicate_NumericIPfLi6EE8getValueEv NONAME
    _ZN22ZCom_Replicate_NumericIPfLi6EE8packDataEP14ZCom_BitStream NONAME
    _ZN22ZCom_Replicate_NumericIPfLi6EE8peekDataEv NONAME
    _ZN22ZCom_Replicate_NumericIPfLi6EE8setValueES0_ NONAME
    _ZN22ZCom_Replicate_NumericIPfLi6EE8setValueEhf NONAME
    _ZN22ZCom_Replicate_NumericIPfLi6EEC1ES0_P18ZCom_RSetupNumeric NONAME
    _ZN22ZCom_Replicate_NumericIPfLi6EEC1ES0_hhhhss NONAME
    _ZN22ZCom_Replicate_NumericIPfLi6EEC2ES0_P18ZCom_RSetupNumeric NONAME
    _ZN22ZCom_Replicate_NumericIPfLi6EEC2ES0_hhhhss NONAME
    _ZN22ZCom_Replicate_NumericIPfLi6EED0Ev NONAME
    _ZN22ZCom_Replicate_NumericIPfLi6EED1Ev NONAME
    _ZN22ZCom_Replicate_NumericIPfLi6EED2Ev NONAME
    _ZN22ZCom_Replicate_NumericIPfLi7EE10checkStateEv NONAME
    _ZN22ZCom_Replicate_NumericIPfLi7EE10unpackDataEP14ZCom_BitStreambj NONAME
    _ZN22ZCom_Replicate_NumericIPfLi7EE13clearPeekDataEv NONAME
    _ZN22ZCom_Replicate_NumericIPfLi7EE7ProcessE14eZCom_NodeRolej NONAME
    _ZN22ZCom_Replicate_NumericIPfLi7EE8getValueEh NONAME
    _ZN22ZCom_Replicate_NumericIPfLi7EE8getValueEv NONAME
    _ZN22ZCom_Replicate_NumericIPfLi7EE8packDataEP14ZCom_BitStream NONAME
    _ZN22ZCom_Replicate_NumericIPfLi7EE8peekDataEv NONAME
    _ZN22ZCom_Replicate_NumericIPfLi7EE8setValueES0_ NONAME
    _ZN22ZCom_Replicate_NumericIPfLi7EE8setValueEhf NONAME
    _ZN22ZCom_Replicate_NumericIPfLi7EEC1ES0_P18ZCom_RSetupNumeric NONAME
    _ZN22ZCom_Replicate_NumericIPfLi7EEC1ES0_hhhhss NONAME
    _ZN22ZCom_Replicate_NumericIPfLi7EEC2ES0_P18ZCom_RSetupNumeric NONAME
    _ZN22ZCom_Replicate_NumericIPfLi7EEC2ES0_hhhhss NONAME
    _ZN22ZCom_Replicate_NumericIPfLi7EED0Ev NONAME
    _ZN22ZCom_Replicate_NumericIPfLi7EED1Ev NONAME
    _ZN22ZCom_Replicate_NumericIPfLi7EED2Ev NONAME
    _ZN22ZCom_Replicate_NumericIPfLi8EE10checkStateEv NONAME
    _ZN22ZCom_Replicate_NumericIPfLi8EE10unpackDataEP14ZCom_BitStreambj NONAME
    _ZN22ZCom_Replicate_NumericIPfLi8EE13clearPeekDataEv NONAME
    _ZN22ZCom_Replicate_NumericIPfLi8EE7ProcessE14eZCom_NodeRolej NONAME
    _ZN22ZCom_Replicate_NumericIPfLi8EE8getValueEh NONAME
    _ZN22ZCom_Replicate_NumericIPfLi8EE8getValueEv NONAME
    _ZN22ZCom_Replicate_NumericIPfLi8EE8packDataEP14ZCom_BitStream NONAME
    _ZN22ZCom_Replicate_NumericIPfLi8EE8peekDataEv NONAME
    _ZN22ZCom_Replicate_NumericIPfLi8EE8setValueES0_ NONAME
    _ZN22ZCom_Replicate_NumericIPfLi8EE8setValueEhf NONAME
    _ZN22ZCom_Replicate_NumericIPfLi8EEC1ES0_P18ZCom_RSetupNumeric NONAME
    _ZN22ZCom_Replicate_NumericIPfLi8EEC1ES0_hhhhss NONAME
    _ZN22ZCom_Replicate_NumericIPfLi8EEC2ES0_P18ZCom_RSetupNumeric NONAME
    _ZN22ZCom_Replicate_NumericIPfLi8EEC2ES0_hhhhss NONAME
    _ZN22ZCom_Replicate_NumericIPfLi8EED0Ev NONAME
    _ZN22ZCom_Replicate_NumericIPfLi8EED1Ev NONAME
    _ZN22ZCom_Replicate_NumericIPfLi8EED2Ev NONAME
    _ZN22ZCom_Replicate_NumericIPfLi9EE10checkStateEv NONAME
    _ZN22ZCom_Replicate_NumericIPfLi9EE10unpackDataEP14ZCom_BitStreambj NONAME
    _ZN22ZCom_Replicate_NumericIPfLi9EE13clearPeekDataEv NONAME
    _ZN22ZCom_Replicate_NumericIPfLi9EE7ProcessE14eZCom_NodeRolej NONAME
    _ZN22ZCom_Replicate_NumericIPfLi9EE8getValueEh NONAME
    _ZN22ZCom_Replicate_NumericIPfLi9EE8getValueEv NONAME
    _ZN22ZCom_Replicate_NumericIPfLi9EE8packDataEP14ZCom_BitStream NONAME
    _ZN22ZCom_Replicate_NumericIPfLi9EE8peekDataEv NONAME
    _ZN22ZCom_Replicate_NumericIPfLi9EE8setValueES0_ NONAME
    _ZN22ZCom_Replicate_NumericIPfLi9EE8setValueEhf NONAME
    _ZN22ZCom_Replicate_NumericIPfLi9EEC1ES0_P18ZCom_RSetupNumeric NONAME
    _ZN22ZCom_Replicate_NumericIPfLi9EEC1ES0_hhhhss NONAME
    _ZN22ZCom_Replicate_NumericIPfLi9EEC2ES0_P18ZCom_RSetupNumeric NONAME
    _ZN22ZCom_Replicate_NumericIPfLi9EEC2ES0_hhhhss NONAME
    _ZN22ZCom_Replicate_NumericIPfLi9EED0Ev NONAME
    _ZN22ZCom_Replicate_NumericIPfLi9EED1Ev NONAME
    _ZN22ZCom_Replicate_NumericIPfLi9EED2Ev NONAME
    _ZN22ZCom_Replicate_NumericIPiLi10EE10checkStateEv NONAME
    _ZN22ZCom_Replicate_NumericIPiLi10EE10unpackDataEP14ZCom_BitStreambj NONAME
    _ZN22ZCom_Replicate_NumericIPiLi10EE13clearPeekDataEv NONAME
    _ZN22ZCom_Replicate_NumericIPiLi10EE7ProcessE14eZCom_NodeRolej NONAME
    _ZN22ZCom_Replicate_NumericIPiLi10EE8getValueEh NONAME
    _ZN22ZCom_Replicate_NumericIPiLi10EE8getValueEv NONAME
    _ZN22ZCom_Replicate_NumericIPiLi10EE8packDataEP14ZCom_BitStream NONAME
    _ZN22ZCom_Replicate_NumericIPiLi10EE8peekDataEv NONAME
    _ZN22ZCom_Replicate_NumericIPiLi10EE8setValueES0_ NONAME
    _ZN22ZCom_Replicate_NumericIPiLi10EE8setValueEhi NONAME
    _ZN22ZCom_Replicate_NumericIPiLi10EEC1ES0_P18ZCom_RSetupNumeric NONAME
    _ZN22ZCom_Replicate_NumericIPiLi10EEC1ES0_hhhhss NONAME
    _ZN22ZCom_Replicate_NumericIPiLi10EEC2ES0_P18ZCom_RSetupNumeric NONAME
    _ZN22ZCom_Replicate_NumericIPiLi10EEC2ES0_hhhhss NONAME
    _ZN22ZCom_Replicate_NumericIPiLi10EED0Ev NONAME
    _ZN22ZCom_Replicate_NumericIPiLi10EED1Ev NONAME
    _ZN22ZCom_Replicate_NumericIPiLi10EED2Ev NONAME
    _ZN22ZCom_Replicate_NumericIPiLi11EE10checkStateEv NONAME
    _ZN22ZCom_Replicate_NumericIPiLi11EE10unpackDataEP14ZCom_BitStreambj NONAME
    _ZN22ZCom_Replicate_NumericIPiLi11EE13clearPeekDataEv NONAME
    _ZN22ZCom_Replicate_NumericIPiLi11EE7ProcessE14eZCom_NodeRolej NONAME
    _ZN22ZCom_Replicate_NumericIPiLi11EE8getValueEh NONAME
    _ZN22ZCom_Replicate_NumericIPiLi11EE8getValueEv NONAME
    _ZN22ZCom_Replicate_NumericIPiLi11EE8packDataEP14ZCom_BitStream NONAME
    _ZN22ZCom_Replicate_NumericIPiLi11EE8peekDataEv NONAME
    _ZN22ZCom_Replicate_NumericIPiLi11EE8setValueES0_ NONAME
    _ZN22ZCom_Replicate_NumericIPiLi11EE8setValueEhi NONAME
    _ZN22ZCom_Replicate_NumericIPiLi11EEC1ES0_P18ZCom_RSetupNumeric NONAME
    _ZN22ZCom_Replicate_NumericIPiLi11EEC1ES0_hhhhss NONAME
    _ZN22ZCom_Replicate_NumericIPiLi11EEC2ES0_P18ZCom_RSetupNumeric NONAME
    _ZN22ZCom_Replicate_NumericIPiLi11EEC2ES0_hhhhss NONAME
    _ZN22ZCom_Replicate_NumericIPiLi11EED0Ev NONAME
    _ZN22ZCom_Replicate_NumericIPiLi11EED1Ev NONAME
    _ZN22ZCom_Replicate_NumericIPiLi11EED2Ev NONAME
    _ZN22ZCom_Replicate_NumericIPiLi12EE10checkStateEv NONAME
    _ZN22ZCom_Replicate_NumericIPiLi12EE10unpackDataEP14ZCom_BitStreambj NONAME
    _ZN22ZCom_Replicate_NumericIPiLi12EE13clearPeekDataEv NONAME
    _ZN22ZCom_Replicate_NumericIPiLi12EE7ProcessE14eZCom_NodeRolej NONAME
    _ZN22ZCom_Replicate_NumericIPiLi12EE8getValueEh NONAME
    _ZN22ZCom_Replicate_NumericIPiLi12EE8getValueEv NONAME
    _ZN22ZCom_Replicate_NumericIPiLi12EE8packDataEP14ZCom_BitStream NONAME
    _ZN22ZCom_Replicate_NumericIPiLi12EE8peekDataEv NONAME
    _ZN22ZCom_Replicate_NumericIPiLi12EE8setValueES0_ NONAME
    _ZN22ZCom_Replicate_NumericIPiLi12EE8setValueEhi NONAME
    _ZN22ZCom_Replicate_NumericIPiLi12EEC1ES0_P18ZCom_RSetupNumeric NONAME
    _ZN22ZCom_Replicate_NumericIPiLi12EEC1ES0_hhhhss NONAME
    _ZN22ZCom_Replicate_NumericIPiLi12EEC2ES0_P18ZCom_RSetupNumeric NONAME
    _ZN22ZCom_Replicate_NumericIPiLi12EEC2ES0_hhhhss NONAME
    _ZN22ZCom_Replicate_NumericIPiLi12EED0Ev NONAME
    _ZN22ZCom_Replicate_NumericIPiLi12EED1Ev NONAME
    _ZN22ZCom_Replicate_NumericIPiLi12EED2Ev NONAME
    _ZN22ZCom_Replicate_NumericIPiLi1EE10checkStateEv NONAME
    _ZN22ZCom_Replicate_NumericIPiLi1EE10unpackDataEP14ZCom_BitStreambj NONAME
    _ZN22ZCom_Replicate_NumericIPiLi1EE13clearPeekDataEv NONAME
    _ZN22ZCom_Replicate_NumericIPiLi1EE7ProcessE14eZCom_NodeRolej NONAME
    _ZN22ZCom_Replicate_NumericIPiLi1EE8getValueEh NONAME
    _ZN22ZCom_Replicate_NumericIPiLi1EE8getValueEv NONAME
    _ZN22ZCom_Replicate_NumericIPiLi1EE8packDataEP14ZCom_BitStream NONAME
    _ZN22ZCom_Replicate_NumericIPiLi1EE8peekDataEv NONAME
    _ZN22ZCom_Replicate_NumericIPiLi1EE8setValueES0_ NONAME
    _ZN22ZCom_Replicate_NumericIPiLi1EE8setValueEhi NONAME
    _ZN22ZCom_Replicate_NumericIPiLi1EEC1ES0_P18ZCom_RSetupNumeric NONAME
    _ZN22ZCom_Replicate_NumericIPiLi1EEC1ES0_hhhhss NONAME
    _ZN22ZCom_Replicate_NumericIPiLi1EEC2ES0_P18ZCom_RSetupNumeric NONAME
    _ZN22ZCom_Replicate_NumericIPiLi1EEC2ES0_hhhhss NONAME
    _ZN22ZCom_Replicate_NumericIPiLi1EED0Ev NONAME
    _ZN22ZCom_Replicate_NumericIPiLi1EED1Ev NONAME
    _ZN22ZCom_Replicate_NumericIPiLi1EED2Ev NONAME
    _ZN22ZCom_Replicate_NumericIPiLi2EE10checkStateEv NONAME
    _ZN22ZCom_Replicate_NumericIPiLi2EE10unpackDataEP14ZCom_BitStreambj NONAME
    _ZN22ZCom_Replicate_NumericIPiLi2EE13clearPeekDataEv NONAME
    _ZN22ZCom_Replicate_NumericIPiLi2EE7ProcessE14eZCom_NodeRolej NONAME
    _ZN22ZCom_Replicate_NumericIPiLi2EE8getValueEh NONAME
    _ZN22ZCom_Replicate_NumericIPiLi2EE8getValueEv NONAME
    _ZN22ZCom_Replicate_NumericIPiLi2EE8packDataEP14ZCom_BitStream NONAME
    _ZN22ZCom_Replicate_NumericIPiLi2EE8peekDataEv NONAME
    _ZN22ZCom_Replicate_NumericIPiLi2EE8setValueES0_ NONAME
    _ZN22ZCom_Replicate_NumericIPiLi2EE8setValueEhi NONAME
    _ZN22ZCom_Replicate_NumericIPiLi2EEC1ES0_P18ZCom_RSetupNumeric NONAME
    _ZN22ZCom_Replicate_NumericIPiLi2EEC1ES0_hhhhss NONAME
    _ZN22ZCom_Replicate_NumericIPiLi2EEC2ES0_P18ZCom_RSetupNumeric NONAME
    _ZN22ZCom_Replicate_NumericIPiLi2EEC2ES0_hhhhss NONAME
    _ZN22ZCom_Replicate_NumericIPiLi2EED0Ev NONAME
    _ZN22ZCom_Replicate_NumericIPiLi2EED1Ev NONAME
    _ZN22ZCom_Replicate_NumericIPiLi2EED2Ev NONAME
    _ZN22ZCom_Replicate_NumericIPiLi3EE10checkStateEv NONAME
    _ZN22ZCom_Replicate_NumericIPiLi3EE10unpackDataEP14ZCom_BitStreambj NONAME
    _ZN22ZCom_Replicate_NumericIPiLi3EE13clearPeekDataEv NONAME
    _ZN22ZCom_Replicate_NumericIPiLi3EE7ProcessE14eZCom_NodeRolej NONAME
    _ZN22ZCom_Replicate_NumericIPiLi3EE8getValueEh NONAME
    _ZN22ZCom_Replicate_NumericIPiLi3EE8getValueEv NONAME
    _ZN22ZCom_Replicate_NumericIPiLi3EE8packDataEP14ZCom_BitStream NONAME
    _ZN22ZCom_Replicate_NumericIPiLi3EE8peekDataEv NONAME
    _ZN22ZCom_Replicate_NumericIPiLi3EE8setValueES0_ NONAME
    _ZN22ZCom_Replicate_NumericIPiLi3EE8setValueEhi NONAME
    _ZN22ZCom_Replicate_NumericIPiLi3EEC1ES0_P18ZCom_RSetupNumeric NONAME
    _ZN22ZCom_Replicate_NumericIPiLi3EEC1ES0_hhhhss NONAME
    _ZN22ZCom_Replicate_NumericIPiLi3EEC2ES0_P18ZCom_RSetupNumeric NONAME
    _ZN22ZCom_Replicate_NumericIPiLi3EEC2ES0_hhhhss NONAME
    _ZN22ZCom_Replicate_NumericIPiLi3EED0Ev NONAME
    _ZN22ZCom_Replicate_NumericIPiLi3EED1Ev NONAME
    _ZN22ZCom_Replicate_NumericIPiLi3EED2Ev NONAME
    _ZN22ZCom_Replicate_NumericIPiLi4EE10checkStateEv NONAME
    _ZN22ZCom_Replicate_NumericIPiLi4EE10unpackDataEP14ZCom_BitStreambj NONAME
    _ZN22ZCom_Replicate_NumericIPiLi4EE13clearPeekDataEv NONAME
    _ZN22ZCom_Replicate_NumericIPiLi4EE7ProcessE14eZCom_NodeRolej NONAME
    _ZN22ZCom_Replicate_NumericIPiLi4EE8getValueEh NONAME
    _ZN22ZCom_Replicate_NumericIPiLi4EE8getValueEv NONAME
    _ZN22ZCom_Replicate_NumericIPiLi4EE8packDataEP14ZCom_BitStream NONAME
    _ZN22ZCom_Replicate_NumericIPiLi4EE8peekDataEv NONAME
    _ZN22ZCom_Replicate_NumericIPiLi4EE8setValueES0_ NONAME
    _ZN22ZCom_Replicate_NumericIPiLi4EE8setValueEhi NONAME
    _ZN22ZCom_Replicate_NumericIPiLi4EEC1ES0_P18ZCom_RSetupNumeric NONAME
    _ZN22ZCom_Replicate_NumericIPiLi4EEC1ES0_hhhhss NONAME
    _ZN22ZCom_Replicate_NumericIPiLi4EEC2ES0_P18ZCom_RSetupNumeric NONAME
    _ZN22ZCom_Replicate_NumericIPiLi4EEC2ES0_hhhhss NONAME
    _ZN22ZCom_Replicate_NumericIPiLi4EED0Ev NONAME
    _ZN22ZCom_Replicate_NumericIPiLi4EED1Ev NONAME
    _ZN22ZCom_Replicate_NumericIPiLi4EED2Ev NONAME
    _ZN22ZCom_Replicate_NumericIPiLi5EE10checkStateEv NONAME
    _ZN22ZCom_Replicate_NumericIPiLi5EE10unpackDataEP14ZCom_BitStreambj NONAME
    _ZN22ZCom_Replicate_NumericIPiLi5EE13clearPeekDataEv NONAME
    _ZN22ZCom_Replicate_NumericIPiLi5EE7ProcessE14eZCom_NodeRolej NONAME
    _ZN22ZCom_Replicate_NumericIPiLi5EE8getValueEh NONAME
    _ZN22ZCom_Replicate_NumericIPiLi5EE8getValueEv NONAME
    _ZN22ZCom_Replicate_NumericIPiLi5EE8packDataEP14ZCom_BitStream NONAME
    _ZN22ZCom_Replicate_NumericIPiLi5EE8peekDataEv NONAME
    _ZN22ZCom_Replicate_NumericIPiLi5EE8setValueES0_ NONAME
    _ZN22ZCom_Replicate_NumericIPiLi5EE8setValueEhi NONAME
    _ZN22ZCom_Replicate_NumericIPiLi5EEC1ES0_P18ZCom_RSetupNumeric NONAME
    _ZN22ZCom_Replicate_NumericIPiLi5EEC1ES0_hhhhss NONAME
    _ZN22ZCom_Replicate_NumericIPiLi5EEC2ES0_P18ZCom_RSetupNumeric NONAME
    _ZN22ZCom_Replicate_NumericIPiLi5EEC2ES0_hhhhss NONAME
    _ZN22ZCom_Replicate_NumericIPiLi5EED0Ev NONAME
    _ZN22ZCom_Replicate_NumericIPiLi5EED1Ev NONAME
    _ZN22ZCom_Replicate_NumericIPiLi5EED2Ev NONAME
    _ZN22ZCom_Replicate_NumericIPiLi6EE10checkStateEv NONAME
    _ZN22ZCom_Replicate_NumericIPiLi6EE10unpackDataEP14ZCom_BitStreambj NONAME
    _ZN22ZCom_Replicate_NumericIPiLi6EE13clearPeekDataEv NONAME
    _ZN22ZCom_Replicate_NumericIPiLi6EE7ProcessE14eZCom_NodeRolej NONAME
    _ZN22ZCom_Replicate_NumericIPiLi6EE8getValueEh NONAME
    _ZN22ZCom_Replicate_NumericIPiLi6EE8getValueEv NONAME
    _ZN22ZCom_Replicate_NumericIPiLi6EE8packDataEP14ZCom_BitStream NONAME
    _ZN22ZCom_Replicate_NumericIPiLi6EE8peekDataEv NONAME
    _ZN22ZCom_Replicate_NumericIPiLi6EE8setValueES0_ NONAME
    _ZN22ZCom_Replicate_NumericIPiLi6EE8setValueEhi NONAME
    _ZN22ZCom_Replicate_NumericIPiLi6EEC1ES0_P18ZCom_RSetupNumeric NONAME
    _ZN22ZCom_Replicate_NumericIPiLi6EEC1ES0_hhhhss NONAME
    _ZN22ZCom_Replicate_NumericIPiLi6EEC2ES0_P18ZCom_RSetupNumeric NONAME
    _ZN22ZCom_Replicate_NumericIPiLi6EEC2ES0_hhhhss NONAME
    _ZN22ZCom_Replicate_NumericIPiLi6EED0Ev NONAME
    _ZN22ZCom_Replicate_NumericIPiLi6EED1Ev NONAME
    _ZN22ZCom_Replicate_NumericIPiLi6EED2Ev NONAME
    _ZN22ZCom_Replicate_NumericIPiLi7EE10checkStateEv NONAME
    _ZN22ZCom_Replicate_NumericIPiLi7EE10unpackDataEP14ZCom_BitStreambj NONAME
    _ZN22ZCom_Replicate_NumericIPiLi7EE13clearPeekDataEv NONAME
    _ZN22ZCom_Replicate_NumericIPiLi7EE7ProcessE14eZCom_NodeRolej NONAME
    _ZN22ZCom_Replicate_NumericIPiLi7EE8getValueEh NONAME
    _ZN22ZCom_Replicate_NumericIPiLi7EE8getValueEv NONAME
    _ZN22ZCom_Replicate_NumericIPiLi7EE8packDataEP14ZCom_BitStream NONAME
    _ZN22ZCom_Replicate_NumericIPiLi7EE8peekDataEv NONAME
    _ZN22ZCom_Replicate_NumericIPiLi7EE8setValueES0_ NONAME
    _ZN22ZCom_Replicate_NumericIPiLi7EE8setValueEhi NONAME
    _ZN22ZCom_Replicate_NumericIPiLi7EEC1ES0_P18ZCom_RSetupNumeric NONAME
    _ZN22ZCom_Replicate_NumericIPiLi7EEC1ES0_hhhhss NONAME
    _ZN22ZCom_Replicate_NumericIPiLi7EEC2ES0_P18ZCom_RSetupNumeric NONAME
    _ZN22ZCom_Replicate_NumericIPiLi7EEC2ES0_hhhhss NONAME
    _ZN22ZCom_Replicate_NumericIPiLi7EED0Ev NONAME
    _ZN22ZCom_Replicate_NumericIPiLi7EED1Ev NONAME
    _ZN22ZCom_Replicate_NumericIPiLi7EED2Ev NONAME
    _ZN22ZCom_Replicate_NumericIPiLi8EE10checkStateEv NONAME
    _ZN22ZCom_Replicate_NumericIPiLi8EE10unpackDataEP14ZCom_BitStreambj NONAME
    _ZN22ZCom_Replicate_NumericIPiLi8EE13clearPeekDataEv NONAME
    _ZN22ZCom_Replicate_NumericIPiLi8EE7ProcessE14eZCom_NodeRolej NONAME
    _ZN22ZCom_Replicate_NumericIPiLi8EE8getValueEh NONAME
    _ZN22ZCom_Replicate_NumericIPiLi8EE8getValueEv NONAME
    _ZN22ZCom_Replicate_NumericIPiLi8EE8packDataEP14ZCom_BitStream NONAME
    _ZN22ZCom_Replicate_NumericIPiLi8EE8peekDataEv NONAME
    _ZN22ZCom_Replicate_NumericIPiLi8EE8setValueES0_ NONAME
    _ZN22ZCom_Replicate_NumericIPiLi8EE8setValueEhi NONAME
    _ZN22ZCom_Replicate_NumericIPiLi8EEC1ES0_P18ZCom_RSetupNumeric NONAME
    _ZN22ZCom_Replicate_NumericIPiLi8EEC1ES0_hhhhss NONAME
    _ZN22ZCom_Replicate_NumericIPiLi8EEC2ES0_P18ZCom_RSetupNumeric NONAME
    _ZN22ZCom_Replicate_NumericIPiLi8EEC2ES0_hhhhss NONAME
    _ZN22ZCom_Replicate_NumericIPiLi8EED0Ev NONAME
    _ZN22ZCom_Replicate_NumericIPiLi8EED1Ev NONAME
    _ZN22ZCom_Replicate_NumericIPiLi8EED2Ev NONAME
    _ZN22ZCom_Replicate_NumericIPiLi9EE10checkStateEv NONAME
    _ZN22ZCom_Replicate_NumericIPiLi9EE10unpackDataEP14ZCom_BitStreambj NONAME
    _ZN22ZCom_Replicate_NumericIPiLi9EE13clearPeekDataEv NONAME
    _ZN22ZCom_Replicate_NumericIPiLi9EE7ProcessE14eZCom_NodeRolej NONAME
    _ZN22ZCom_Replicate_NumericIPiLi9EE8getValueEh NONAME
    _ZN22ZCom_Replicate_NumericIPiLi9EE8getValueEv NONAME
    _ZN22ZCom_Replicate_NumericIPiLi9EE8packDataEP14ZCom_BitStream NONAME
    _ZN22ZCom_Replicate_NumericIPiLi9EE8peekDataEv NONAME
    _ZN22ZCom_Replicate_NumericIPiLi9EE8setValueES0_ NONAME
    _ZN22ZCom_Replicate_NumericIPiLi9EE8setValueEhi NONAME
    _ZN22ZCom_Replicate_NumericIPiLi9EEC1ES0_P18ZCom_RSetupNumeric NONAME
    _ZN22ZCom_Replicate_NumericIPiLi9EEC1ES0_hhhhss NONAME
    _ZN22ZCom_Replicate_NumericIPiLi9EEC2ES0_P18ZCom_RSetupNumeric NONAME
    _ZN22ZCom_Replicate_NumericIPiLi9EEC2ES0_hhhhss NONAME
    _ZN22ZCom_Replicate_NumericIPiLi9EED0Ev NONAME
    _ZN22ZCom_Replicate_NumericIPiLi9EED1Ev NONAME
    _ZN22ZCom_Replicate_NumericIPiLi9EED2Ev NONAME
    _ZN22ZCom_Replicate_NumericIPjLi10EE10checkStateEv NONAME
    _ZN22ZCom_Replicate_NumericIPjLi10EE10unpackDataEP14ZCom_BitStreambj NONAME
    _ZN22ZCom_Replicate_NumericIPjLi10EE13clearPeekDataEv NONAME
    _ZN22ZCom_Replicate_NumericIPjLi10EE7ProcessE14eZCom_NodeRolej NONAME
    _ZN22ZCom_Replicate_NumericIPjLi10EE8getValueEh NONAME
    _ZN22ZCom_Replicate_NumericIPjLi10EE8getValueEv NONAME
    _ZN22ZCom_Replicate_NumericIPjLi10EE8packDataEP14ZCom_BitStream NONAME
    _ZN22ZCom_Replicate_NumericIPjLi10EE8peekDataEv NONAME
    _ZN22ZCom_Replicate_NumericIPjLi10EE8setValueES0_ NONAME
    _ZN22ZCom_Replicate_NumericIPjLi10EE8setValueEhj NONAME
    _ZN22ZCom_Replicate_NumericIPjLi10EEC1ES0_P18ZCom_RSetupNumeric NONAME
    _ZN22ZCom_Replicate_NumericIPjLi10EEC1ES0_hhhhss NONAME
    _ZN22ZCom_Replicate_NumericIPjLi10EEC2ES0_P18ZCom_RSetupNumeric NONAME
    _ZN22ZCom_Replicate_NumericIPjLi10EEC2ES0_hhhhss NONAME
    _ZN22ZCom_Replicate_NumericIPjLi10EED0Ev NONAME
    _ZN22ZCom_Replicate_NumericIPjLi10EED1Ev NONAME
    _ZN22ZCom_Replicate_NumericIPjLi10EED2Ev NONAME
    _ZN22ZCom_Replicate_NumericIPjLi11EE10checkStateEv NONAME
    _ZN22ZCom_Replicate_NumericIPjLi11EE10unpackDataEP14ZCom_BitStreambj NONAME
    _ZN22ZCom_Replicate_NumericIPjLi11EE13clearPeekDataEv NONAME
    _ZN22ZCom_Replicate_NumericIPjLi11EE7ProcessE14eZCom_NodeRolej NONAME
    _ZN22ZCom_Replicate_NumericIPjLi11EE8getValueEh NONAME
    _ZN22ZCom_Replicate_NumericIPjLi11EE8getValueEv NONAME
    _ZN22ZCom_Replicate_NumericIPjLi11EE8packDataEP14ZCom_BitStream NONAME
    _ZN22ZCom_Replicate_NumericIPjLi11EE8peekDataEv NONAME
    _ZN22ZCom_Replicate_NumericIPjLi11EE8setValueES0_ NONAME
    _ZN22ZCom_Replicate_NumericIPjLi11EE8setValueEhj NONAME
    _ZN22ZCom_Replicate_NumericIPjLi11EEC1ES0_P18ZCom_RSetupNumeric NONAME
    _ZN22ZCom_Replicate_NumericIPjLi11EEC1ES0_hhhhss NONAME
    _ZN22ZCom_Replicate_NumericIPjLi11EEC2ES0_P18ZCom_RSetupNumeric NONAME
    _ZN22ZCom_Replicate_NumericIPjLi11EEC2ES0_hhhhss NONAME
    _ZN22ZCom_Replicate_NumericIPjLi11EED0Ev NONAME
    _ZN22ZCom_Replicate_NumericIPjLi11EED1Ev NONAME
    _ZN22ZCom_Replicate_NumericIPjLi11EED2Ev NONAME
    _ZN22ZCom_Replicate_NumericIPjLi12EE10checkStateEv NONAME
    _ZN22ZCom_Replicate_NumericIPjLi12EE10unpackDataEP14ZCom_BitStreambj NONAME
    _ZN22ZCom_Replicate_NumericIPjLi12EE13clearPeekDataEv NONAME
    _ZN22ZCom_Replicate_NumericIPjLi12EE7ProcessE14eZCom_NodeRolej NONAME
    _ZN22ZCom_Replicate_NumericIPjLi12EE8getValueEh NONAME
    _ZN22ZCom_Replicate_NumericIPjLi12EE8getValueEv NONAME
    _ZN22ZCom_Replicate_NumericIPjLi12EE8packDataEP14ZCom_BitStream NONAME
    _ZN22ZCom_Replicate_NumericIPjLi12EE8peekDataEv NONAME
    _ZN22ZCom_Replicate_NumericIPjLi12EE8setValueES0_ NONAME
    _ZN22ZCom_Replicate_NumericIPjLi12EE8setValueEhj NONAME
    _ZN22ZCom_Replicate_NumericIPjLi12EEC1ES0_P18ZCom_RSetupNumeric NONAME
    _ZN22ZCom_Replicate_NumericIPjLi12EEC1ES0_hhhhss NONAME
    _ZN22ZCom_Replicate_NumericIPjLi12EEC2ES0_P18ZCom_RSetupNumeric NONAME
    _ZN22ZCom_Replicate_NumericIPjLi12EEC2ES0_hhhhss NONAME
    _ZN22ZCom_Replicate_NumericIPjLi12EED0Ev NONAME
    _ZN22ZCom_Replicate_NumericIPjLi12EED1Ev NONAME
    _ZN22ZCom_Replicate_NumericIPjLi12EED2Ev NONAME
    _ZN22ZCom_Replicate_NumericIPjLi1EE10checkStateEv NONAME
    _ZN22ZCom_Replicate_NumericIPjLi1EE10unpackDataEP14ZCom_BitStreambj NONAME
    _ZN22ZCom_Replicate_NumericIPjLi1EE13clearPeekDataEv NONAME
    _ZN22ZCom_Replicate_NumericIPjLi1EE7ProcessE14eZCom_NodeRolej NONAME
    _ZN22ZCom_Replicate_NumericIPjLi1EE8getValueEh NONAME
    _ZN22ZCom_Replicate_NumericIPjLi1EE8getValueEv NONAME
    _ZN22ZCom_Replicate_NumericIPjLi1EE8packDataEP14ZCom_BitStream NONAME
    _ZN22ZCom_Replicate_NumericIPjLi1EE8peekDataEv NONAME
    _ZN22ZCom_Replicate_NumericIPjLi1EE8setValueES0_ NONAME
    _ZN22ZCom_Replicate_NumericIPjLi1EE8setValueEhj NONAME
    _ZN22ZCom_Replicate_NumericIPjLi1EEC1ES0_P18ZCom_RSetupNumeric NONAME
    _ZN22ZCom_Replicate_NumericIPjLi1EEC1ES0_hhhhss NONAME
    _ZN22ZCom_Replicate_NumericIPjLi1EEC2ES0_P18ZCom_RSetupNumeric NONAME
    _ZN22ZCom_Replicate_NumericIPjLi1EEC2ES0_hhhhss NONAME
    _ZN22ZCom_Replicate_NumericIPjLi1EED0Ev NONAME
    _ZN22ZCom_Replicate_NumericIPjLi1EED1Ev NONAME
    _ZN22ZCom_Replicate_NumericIPjLi1EED2Ev NONAME
    _ZN22ZCom_Replicate_NumericIPjLi2EE10checkStateEv NONAME
    _ZN22ZCom_Replicate_NumericIPjLi2EE10unpackDataEP14ZCom_BitStreambj NONAME
    _ZN22ZCom_Replicate_NumericIPjLi2EE13clearPeekDataEv NONAME
    _ZN22ZCom_Replicate_NumericIPjLi2EE7ProcessE14eZCom_NodeRolej NONAME
    _ZN22ZCom_Replicate_NumericIPjLi2EE8getValueEh NONAME
    _ZN22ZCom_Replicate_NumericIPjLi2EE8getValueEv NONAME
    _ZN22ZCom_Replicate_NumericIPjLi2EE8packDataEP14ZCom_BitStream NONAME
    _ZN22ZCom_Replicate_NumericIPjLi2EE8peekDataEv NONAME
    _ZN22ZCom_Replicate_NumericIPjLi2EE8setValueES0_ NONAME
    _ZN22ZCom_Replicate_NumericIPjLi2EE8setValueEhj NONAME
    _ZN22ZCom_Replicate_NumericIPjLi2EEC1ES0_P18ZCom_RSetupNumeric NONAME
    _ZN22ZCom_Replicate_NumericIPjLi2EEC1ES0_hhhhss NONAME
    _ZN22ZCom_Replicate_NumericIPjLi2EEC2ES0_P18ZCom_RSetupNumeric NONAME
    _ZN22ZCom_Replicate_NumericIPjLi2EEC2ES0_hhhhss NONAME
    _ZN22ZCom_Replicate_NumericIPjLi2EED0Ev NONAME
    _ZN22ZCom_Replicate_NumericIPjLi2EED1Ev NONAME
    _ZN22ZCom_Replicate_NumericIPjLi2EED2Ev NONAME
    _ZN22ZCom_Replicate_NumericIPjLi3EE10checkStateEv NONAME
    _ZN22ZCom_Replicate_NumericIPjLi3EE10unpackDataEP14ZCom_BitStreambj NONAME
    _ZN22ZCom_Replicate_NumericIPjLi3EE13clearPeekDataEv NONAME
    _ZN22ZCom_Replicate_NumericIPjLi3EE7ProcessE14eZCom_NodeRolej NONAME
    _ZN22ZCom_Replicate_NumericIPjLi3EE8getValueEh NONAME
    _ZN22ZCom_Replicate_NumericIPjLi3EE8getValueEv NONAME
    _ZN22ZCom_Replicate_NumericIPjLi3EE8packDataEP14ZCom_BitStream NONAME
    _ZN22ZCom_Replicate_NumericIPjLi3EE8peekDataEv NONAME
    _ZN22ZCom_Replicate_NumericIPjLi3EE8setValueES0_ NONAME
    _ZN22ZCom_Replicate_NumericIPjLi3EE8setValueEhj NONAME
    _ZN22ZCom_Replicate_NumericIPjLi3EEC1ES0_P18ZCom_RSetupNumeric NONAME
    _ZN22ZCom_Replicate_NumericIPjLi3EEC1ES0_hhhhss NONAME
    _ZN22ZCom_Replicate_NumericIPjLi3EEC2ES0_P18ZCom_RSetupNumeric NONAME
    _ZN22ZCom_Replicate_NumericIPjLi3EEC2ES0_hhhhss NONAME
    _ZN22ZCom_Replicate_NumericIPjLi3EED0Ev NONAME
    _ZN22ZCom_Replicate_NumericIPjLi3EED1Ev NONAME
    _ZN22ZCom_Replicate_NumericIPjLi3EED2Ev NONAME
    _ZN22ZCom_Replicate_NumericIPjLi4EE10checkStateEv NONAME
    _ZN22ZCom_Replicate_NumericIPjLi4EE10unpackDataEP14ZCom_BitStreambj NONAME
    _ZN22ZCom_Replicate_NumericIPjLi4EE13clearPeekDataEv NONAME
    _ZN22ZCom_Replicate_NumericIPjLi4EE7ProcessE14eZCom_NodeRolej NONAME
    _ZN22ZCom_Replicate_NumericIPjLi4EE8getValueEh NONAME
    _ZN22ZCom_Replicate_NumericIPjLi4EE8getValueEv NONAME
    _ZN22ZCom_Replicate_NumericIPjLi4EE8packDataEP14ZCom_BitStream NONAME
    _ZN22ZCom_Replicate_NumericIPjLi4EE8peekDataEv NONAME
    _ZN22ZCom_Replicate_NumericIPjLi4EE8setValueES0_ NONAME
    _ZN22ZCom_Replicate_NumericIPjLi4EE8setValueEhj NONAME
    _ZN22ZCom_Replicate_NumericIPjLi4EEC1ES0_P18ZCom_RSetupNumeric NONAME
    _ZN22ZCom_Replicate_NumericIPjLi4EEC1ES0_hhhhss NONAME
    _ZN22ZCom_Replicate_NumericIPjLi4EEC2ES0_P18ZCom_RSetupNumeric NONAME
    _ZN22ZCom_Replicate_NumericIPjLi4EEC2ES0_hhhhss NONAME
    _ZN22ZCom_Replicate_NumericIPjLi4EED0Ev NONAME
    _ZN22ZCom_Replicate_NumericIPjLi4EED1Ev NONAME
    _ZN22ZCom_Replicate_NumericIPjLi4EED2Ev NONAME
    _ZN22ZCom_Replicate_NumericIPjLi5EE10checkStateEv NONAME
    _ZN22ZCom_Replicate_NumericIPjLi5EE10unpackDataEP14ZCom_BitStreambj NONAME
    _ZN22ZCom_Replicate_NumericIPjLi5EE13clearPeekDataEv NONAME
    _ZN22ZCom_Replicate_NumericIPjLi5EE7ProcessE14eZCom_NodeRolej NONAME
    _ZN22ZCom_Replicate_NumericIPjLi5EE8getValueEh NONAME
    _ZN22ZCom_Replicate_NumericIPjLi5EE8getValueEv NONAME
    _ZN22ZCom_Replicate_NumericIPjLi5EE8packDataEP14ZCom_BitStream NONAME
    _ZN22ZCom_Replicate_NumericIPjLi5EE8peekDataEv NONAME
    _ZN22ZCom_Replicate_NumericIPjLi5EE8setValueES0_ NONAME
    _ZN22ZCom_Replicate_NumericIPjLi5EE8setValueEhj NONAME
    _ZN22ZCom_Replicate_NumericIPjLi5EEC1ES0_P18ZCom_RSetupNumeric NONAME
    _ZN22ZCom_Replicate_NumericIPjLi5EEC1ES0_hhhhss NONAME
    _ZN22ZCom_Replicate_NumericIPjLi5EEC2ES0_P18ZCom_RSetupNumeric NONAME
    _ZN22ZCom_Replicate_NumericIPjLi5EEC2ES0_hhhhss NONAME
    _ZN22ZCom_Replicate_NumericIPjLi5EED0Ev NONAME
    _ZN22ZCom_Replicate_NumericIPjLi5EED1Ev NONAME
    _ZN22ZCom_Replicate_NumericIPjLi5EED2Ev NONAME
    _ZN22ZCom_Replicate_NumericIPjLi6EE10checkStateEv NONAME
    _ZN22ZCom_Replicate_NumericIPjLi6EE10unpackDataEP14ZCom_BitStreambj NONAME
    _ZN22ZCom_Replicate_NumericIPjLi6EE13clearPeekDataEv NONAME
    _ZN22ZCom_Replicate_NumericIPjLi6EE7ProcessE14eZCom_NodeRolej NONAME
    _ZN22ZCom_Replicate_NumericIPjLi6EE8getValueEh NONAME
    _ZN22ZCom_Replicate_NumericIPjLi6EE8getValueEv NONAME
    _ZN22ZCom_Replicate_NumericIPjLi6EE8packDataEP14ZCom_BitStream NONAME
    _ZN22ZCom_Replicate_NumericIPjLi6EE8peekDataEv NONAME
    _ZN22ZCom_Replicate_NumericIPjLi6EE8setValueES0_ NONAME
    _ZN22ZCom_Replicate_NumericIPjLi6EE8setValueEhj NONAME
    _ZN22ZCom_Replicate_NumericIPjLi6EEC1ES0_P18ZCom_RSetupNumeric NONAME
    _ZN22ZCom_Replicate_NumericIPjLi6EEC1ES0_hhhhss NONAME
    _ZN22ZCom_Replicate_NumericIPjLi6EEC2ES0_P18ZCom_RSetupNumeric NONAME
    _ZN22ZCom_Replicate_NumericIPjLi6EEC2ES0_hhhhss NONAME
    _ZN22ZCom_Replicate_NumericIPjLi6EED0Ev NONAME
    _ZN22ZCom_Replicate_NumericIPjLi6EED1Ev NONAME
    _ZN22ZCom_Replicate_NumericIPjLi6EED2Ev NONAME
    _ZN22ZCom_Replicate_NumericIPjLi7EE10checkStateEv NONAME
    _ZN22ZCom_Replicate_NumericIPjLi7EE10unpackDataEP14ZCom_BitStreambj NONAME
    _ZN22ZCom_Replicate_NumericIPjLi7EE13clearPeekDataEv NONAME
    _ZN22ZCom_Replicate_NumericIPjLi7EE7ProcessE14eZCom_NodeRolej NONAME
    _ZN22ZCom_Replicate_NumericIPjLi7EE8getValueEh NONAME
    _ZN22ZCom_Replicate_NumericIPjLi7EE8getValueEv NONAME
    _ZN22ZCom_Replicate_NumericIPjLi7EE8packDataEP14ZCom_BitStream NONAME
    _ZN22ZCom_Replicate_NumericIPjLi7EE8peekDataEv NONAME
    _ZN22ZCom_Replicate_NumericIPjLi7EE8setValueES0_ NONAME
    _ZN22ZCom_Replicate_NumericIPjLi7EE8setValueEhj NONAME
    _ZN22ZCom_Replicate_NumericIPjLi7EEC1ES0_P18ZCom_RSetupNumeric NONAME
    _ZN22ZCom_Replicate_NumericIPjLi7EEC1ES0_hhhhss NONAME
    _ZN22ZCom_Replicate_NumericIPjLi7EEC2ES0_P18ZCom_RSetupNumeric NONAME
    _ZN22ZCom_Replicate_NumericIPjLi7EEC2ES0_hhhhss NONAME
    _ZN22ZCom_Replicate_NumericIPjLi7EED0Ev NONAME
    _ZN22ZCom_Replicate_NumericIPjLi7EED1Ev NONAME
    _ZN22ZCom_Replicate_NumericIPjLi7EED2Ev NONAME
    _ZN22ZCom_Replicate_NumericIPjLi8EE10checkStateEv NONAME
    _ZN22ZCom_Replicate_NumericIPjLi8EE10unpackDataEP14ZCom_BitStreambj NONAME
    _ZN22ZCom_Replicate_NumericIPjLi8EE13clearPeekDataEv NONAME
    _ZN22ZCom_Replicate_NumericIPjLi8EE7ProcessE14eZCom_NodeRolej NONAME
    _ZN22ZCom_Replicate_NumericIPjLi8EE8getValueEh NONAME
    _ZN22ZCom_Replicate_NumericIPjLi8EE8getValueEv NONAME
    _ZN22ZCom_Replicate_NumericIPjLi8EE8packDataEP14ZCom_BitStream NONAME
    _ZN22ZCom_Replicate_NumericIPjLi8EE8peekDataEv NONAME
    _ZN22ZCom_Replicate_NumericIPjLi8EE8setValueES0_ NONAME
    _ZN22ZCom_Replicate_NumericIPjLi8EE8setValueEhj NONAME
    _ZN22ZCom_Replicate_NumericIPjLi8EEC1ES0_P18ZCom_RSetupNumeric NONAME
    _ZN22ZCom_Replicate_NumericIPjLi8EEC1ES0_hhhhss NONAME
    _ZN22ZCom_Replicate_NumericIPjLi8EEC2ES0_P18ZCom_RSetupNumeric NONAME
    _ZN22ZCom_Replicate_NumericIPjLi8EEC2ES0_hhhhss NONAME
    _ZN22ZCom_Replicate_NumericIPjLi8EED0Ev NONAME
    _ZN22ZCom_Replicate_NumericIPjLi8EED1Ev NONAME
    _ZN22ZCom_Replicate_NumericIPjLi8EED2Ev NONAME
    _ZN22ZCom_Replicate_NumericIPjLi9EE10checkStateEv NONAME
    _ZN22ZCom_Replicate_NumericIPjLi9EE10unpackDataEP14ZCom_BitStreambj NONAME
    _ZN22ZCom_Replicate_NumericIPjLi9EE13clearPeekDataEv NONAME
    _ZN22ZCom_Replicate_NumericIPjLi9EE7ProcessE14eZCom_NodeRolej NONAME
    _ZN22ZCom_Replicate_NumericIPjLi9EE8getValueEh NONAME
    _ZN22ZCom_Replicate_NumericIPjLi9EE8getValueEv NONAME
    _ZN22ZCom_Replicate_NumericIPjLi9EE8packDataEP14ZCom_BitStream NONAME
    _ZN22ZCom_Replicate_NumericIPjLi9EE8peekDataEv NONAME
    _ZN22ZCom_Replicate_NumericIPjLi9EE8setValueES0_ NONAME
    _ZN22ZCom_Replicate_NumericIPjLi9EE8setValueEhj NONAME
    _ZN22ZCom_Replicate_NumericIPjLi9EEC1ES0_P18ZCom_RSetupNumeric NONAME
    _ZN22ZCom_Replicate_NumericIPjLi9EEC1ES0_hhhhss NONAME
    _ZN22ZCom_Replicate_NumericIPjLi9EEC2ES0_P18ZCom_RSetupNumeric NONAME
    _ZN22ZCom_Replicate_NumericIPjLi9EEC2ES0_hhhhss NONAME
    _ZN22ZCom_Replicate_NumericIPjLi9EED0Ev NONAME
    _ZN22ZCom_Replicate_NumericIPjLi9EED1Ev NONAME
    _ZN22ZCom_Replicate_NumericIPjLi9EED2Ev NONAME
    _ZN22ZCom_Replicate_NumericIfLi10EE10checkStateEv NONAME
    _ZN22ZCom_Replicate_NumericIfLi10EE10unpackDataEP14ZCom_BitStreambj NONAME
    _ZN22ZCom_Replicate_NumericIfLi10EE13clearPeekDataEv NONAME
    _ZN22ZCom_Replicate_NumericIfLi10EE7ProcessE14eZCom_NodeRolej NONAME
    _ZN22ZCom_Replicate_NumericIfLi10EE8getValueEh NONAME
    _ZN22ZCom_Replicate_NumericIfLi10EE8getValueEv NONAME
    _ZN22ZCom_Replicate_NumericIfLi10EE8packDataEP14ZCom_BitStream NONAME
    _ZN22ZCom_Replicate_NumericIfLi10EE8peekDataEv NONAME
    _ZN22ZCom_Replicate_NumericIfLi10EE8setValueEPf NONAME
    _ZN22ZCom_Replicate_NumericIfLi10EE8setValueEhf NONAME
    _ZN22ZCom_Replicate_NumericIfLi10EEC1EPfP18ZCom_RSetupNumeric NONAME
    _ZN22ZCom_Replicate_NumericIfLi10EEC1EPfhhhhss NONAME
    _ZN22ZCom_Replicate_NumericIfLi10EEC2EPfP18ZCom_RSetupNumeric NONAME
    _ZN22ZCom_Replicate_NumericIfLi10EEC2EPfhhhhss NONAME
    _ZN22ZCom_Replicate_NumericIfLi10EED0Ev NONAME
    _ZN22ZCom_Replicate_NumericIfLi10EED1Ev NONAME
    _ZN22ZCom_Replicate_NumericIfLi10EED2Ev NONAME
    _ZN22ZCom_Replicate_NumericIfLi11EE10checkStateEv NONAME
    _ZN22ZCom_Replicate_NumericIfLi11EE10unpackDataEP14ZCom_BitStreambj NONAME
    _ZN22ZCom_Replicate_NumericIfLi11EE13clearPeekDataEv NONAME
    _ZN22ZCom_Replicate_NumericIfLi11EE7ProcessE14eZCom_NodeRolej NONAME
    _ZN22ZCom_Replicate_NumericIfLi11EE8getValueEh NONAME
    _ZN22ZCom_Replicate_NumericIfLi11EE8getValueEv NONAME
    _ZN22ZCom_Replicate_NumericIfLi11EE8packDataEP14ZCom_BitStream NONAME
    _ZN22ZCom_Replicate_NumericIfLi11EE8peekDataEv NONAME
    _ZN22ZCom_Replicate_NumericIfLi11EE8setValueEPf NONAME
    _ZN22ZCom_Replicate_NumericIfLi11EE8setValueEhf NONAME
    _ZN22ZCom_Replicate_NumericIfLi11EEC1EPfP18ZCom_RSetupNumeric NONAME
    _ZN22ZCom_Replicate_NumericIfLi11EEC1EPfhhhhss NONAME
    _ZN22ZCom_Replicate_NumericIfLi11EEC2EPfP18ZCom_RSetupNumeric NONAME
    _ZN22ZCom_Replicate_NumericIfLi11EEC2EPfhhhhss NONAME
    _ZN22ZCom_Replicate_NumericIfLi11EED0Ev NONAME
    _ZN22ZCom_Replicate_NumericIfLi11EED1Ev NONAME
    _ZN22ZCom_Replicate_NumericIfLi11EED2Ev NONAME
    _ZN22ZCom_Replicate_NumericIfLi12EE10checkStateEv NONAME
    _ZN22ZCom_Replicate_NumericIfLi12EE10unpackDataEP14ZCom_BitStreambj NONAME
    _ZN22ZCom_Replicate_NumericIfLi12EE13clearPeekDataEv NONAME
    _ZN22ZCom_Replicate_NumericIfLi12EE7ProcessE14eZCom_NodeRolej NONAME
    _ZN22ZCom_Replicate_NumericIfLi12EE8getValueEh NONAME
    _ZN22ZCom_Replicate_NumericIfLi12EE8getValueEv NONAME
    _ZN22ZCom_Replicate_NumericIfLi12EE8packDataEP14ZCom_BitStream NONAME
    _ZN22ZCom_Replicate_NumericIfLi12EE8peekDataEv NONAME
    _ZN22ZCom_Replicate_NumericIfLi12EE8setValueEPf NONAME
    _ZN22ZCom_Replicate_NumericIfLi12EE8setValueEhf NONAME
    _ZN22ZCom_Replicate_NumericIfLi12EEC1EPfP18ZCom_RSetupNumeric NONAME
    _ZN22ZCom_Replicate_NumericIfLi12EEC1EPfhhhhss NONAME
    _ZN22ZCom_Replicate_NumericIfLi12EEC2EPfP18ZCom_RSetupNumeric NONAME
    _ZN22ZCom_Replicate_NumericIfLi12EEC2EPfhhhhss NONAME
    _ZN22ZCom_Replicate_NumericIfLi12EED0Ev NONAME
    _ZN22ZCom_Replicate_NumericIfLi12EED1Ev NONAME
    _ZN22ZCom_Replicate_NumericIfLi12EED2Ev NONAME
    _ZN22ZCom_Replicate_NumericIfLi1EE10checkStateEv NONAME
    _ZN22ZCom_Replicate_NumericIfLi1EE10unpackDataEP14ZCom_BitStreambj NONAME
    _ZN22ZCom_Replicate_NumericIfLi1EE13clearPeekDataEv NONAME
    _ZN22ZCom_Replicate_NumericIfLi1EE7ProcessE14eZCom_NodeRolej NONAME
    _ZN22ZCom_Replicate_NumericIfLi1EE8getValueEh NONAME
    _ZN22ZCom_Replicate_NumericIfLi1EE8getValueEv NONAME
    _ZN22ZCom_Replicate_NumericIfLi1EE8packDataEP14ZCom_BitStream NONAME
    _ZN22ZCom_Replicate_NumericIfLi1EE8peekDataEv NONAME
    _ZN22ZCom_Replicate_NumericIfLi1EE8setValueEPf NONAME
    _ZN22ZCom_Replicate_NumericIfLi1EE8setValueEhf NONAME
    _ZN22ZCom_Replicate_NumericIfLi1EEC1EPfP18ZCom_RSetupNumeric NONAME
    _ZN22ZCom_Replicate_NumericIfLi1EEC1EPfhhhhss NONAME
    _ZN22ZCom_Replicate_NumericIfLi1EEC2EPfP18ZCom_RSetupNumeric NONAME
    _ZN22ZCom_Replicate_NumericIfLi1EEC2EPfhhhhss NONAME
    _ZN22ZCom_Replicate_NumericIfLi1EED0Ev NONAME
    _ZN22ZCom_Replicate_NumericIfLi1EED1Ev NONAME
    _ZN22ZCom_Replicate_NumericIfLi1EED2Ev NONAME
    _ZN22ZCom_Replicate_NumericIfLi2EE10checkStateEv NONAME
    _ZN22ZCom_Replicate_NumericIfLi2EE10unpackDataEP14ZCom_BitStreambj NONAME
    _ZN22ZCom_Replicate_NumericIfLi2EE13clearPeekDataEv NONAME
    _ZN22ZCom_Replicate_NumericIfLi2EE7ProcessE14eZCom_NodeRolej NONAME
    _ZN22ZCom_Replicate_NumericIfLi2EE8getValueEh NONAME
    _ZN22ZCom_Replicate_NumericIfLi2EE8getValueEv NONAME
    _ZN22ZCom_Replicate_NumericIfLi2EE8packDataEP14ZCom_BitStream NONAME
    _ZN22ZCom_Replicate_NumericIfLi2EE8peekDataEv NONAME
    _ZN22ZCom_Replicate_NumericIfLi2EE8setValueEPf NONAME
    _ZN22ZCom_Replicate_NumericIfLi2EE8setValueEhf NONAME
    _ZN22ZCom_Replicate_NumericIfLi2EEC1EPfP18ZCom_RSetupNumeric NONAME
    _ZN22ZCom_Replicate_NumericIfLi2EEC1EPfhhhhss NONAME
    _ZN22ZCom_Replicate_NumericIfLi2EEC2EPfP18ZCom_RSetupNumeric NONAME
    _ZN22ZCom_Replicate_NumericIfLi2EEC2EPfhhhhss NONAME
    _ZN22ZCom_Replicate_NumericIfLi2EED0Ev NONAME
    _ZN22ZCom_Replicate_NumericIfLi2EED1Ev NONAME
    _ZN22ZCom_Replicate_NumericIfLi2EED2Ev NONAME
    _ZN22ZCom_Replicate_NumericIfLi3EE10checkStateEv NONAME
    _ZN22ZCom_Replicate_NumericIfLi3EE10unpackDataEP14ZCom_BitStreambj NONAME
    _ZN22ZCom_Replicate_NumericIfLi3EE13clearPeekDataEv NONAME
    _ZN22ZCom_Replicate_NumericIfLi3EE7ProcessE14eZCom_NodeRolej NONAME
    _ZN22ZCom_Replicate_NumericIfLi3EE8getValueEh NONAME
    _ZN22ZCom_Replicate_NumericIfLi3EE8getValueEv NONAME
    _ZN22ZCom_Replicate_NumericIfLi3EE8packDataEP14ZCom_BitStream NONAME
    _ZN22ZCom_Replicate_NumericIfLi3EE8peekDataEv NONAME
    _ZN22ZCom_Replicate_NumericIfLi3EE8setValueEPf NONAME
    _ZN22ZCom_Replicate_NumericIfLi3EE8setValueEhf NONAME
    _ZN22ZCom_Replicate_NumericIfLi3EEC1EPfP18ZCom_RSetupNumeric NONAME
    _ZN22ZCom_Replicate_NumericIfLi3EEC1EPfhhhhss NONAME
    _ZN22ZCom_Replicate_NumericIfLi3EEC2EPfP18ZCom_RSetupNumeric NONAME
    _ZN22ZCom_Replicate_NumericIfLi3EEC2EPfhhhhss NONAME
    _ZN22ZCom_Replicate_NumericIfLi3EED0Ev NONAME
    _ZN22ZCom_Replicate_NumericIfLi3EED1Ev NONAME
    _ZN22ZCom_Replicate_NumericIfLi3EED2Ev NONAME
    _ZN22ZCom_Replicate_NumericIfLi4EE10checkStateEv NONAME
    _ZN22ZCom_Replicate_NumericIfLi4EE10unpackDataEP14ZCom_BitStreambj NONAME
    _ZN22ZCom_Replicate_NumericIfLi4EE13clearPeekDataEv NONAME
    _ZN22ZCom_Replicate_NumericIfLi4EE7ProcessE14eZCom_NodeRolej NONAME
    _ZN22ZCom_Replicate_NumericIfLi4EE8getValueEh NONAME
    _ZN22ZCom_Replicate_NumericIfLi4EE8getValueEv NONAME
    _ZN22ZCom_Replicate_NumericIfLi4EE8packDataEP14ZCom_BitStream NONAME
    _ZN22ZCom_Replicate_NumericIfLi4EE8peekDataEv NONAME
    _ZN22ZCom_Replicate_NumericIfLi4EE8setValueEPf NONAME
    _ZN22ZCom_Replicate_NumericIfLi4EE8setValueEhf NONAME
    _ZN22ZCom_Replicate_NumericIfLi4EEC1EPfP18ZCom_RSetupNumeric NONAME
    _ZN22ZCom_Replicate_NumericIfLi4EEC1EPfhhhhss NONAME
    _ZN22ZCom_Replicate_NumericIfLi4EEC2EPfP18ZCom_RSetupNumeric NONAME
    _ZN22ZCom_Replicate_NumericIfLi4EEC2EPfhhhhss NONAME
    _ZN22ZCom_Replicate_NumericIfLi4EED0Ev NONAME
    _ZN22ZCom_Replicate_NumericIfLi4EED1Ev NONAME
    _ZN22ZCom_Replicate_NumericIfLi4EED2Ev NONAME
    _ZN22ZCom_Replicate_NumericIfLi5EE10checkStateEv NONAME
    _ZN22ZCom_Replicate_NumericIfLi5EE10unpackDataEP14ZCom_BitStreambj NONAME
    _ZN22ZCom_Replicate_NumericIfLi5EE13clearPeekDataEv NONAME
    _ZN22ZCom_Replicate_NumericIfLi5EE7ProcessE14eZCom_NodeRolej NONAME
    _ZN22ZCom_Replicate_NumericIfLi5EE8getValueEh NONAME
    _ZN22ZCom_Replicate_NumericIfLi5EE8getValueEv NONAME
    _ZN22ZCom_Replicate_NumericIfLi5EE8packDataEP14ZCom_BitStream NONAME
    _ZN22ZCom_Replicate_NumericIfLi5EE8peekDataEv NONAME
    _ZN22ZCom_Replicate_NumericIfLi5EE8setValueEPf NONAME
    _ZN22ZCom_Replicate_NumericIfLi5EE8setValueEhf NONAME
    _ZN22ZCom_Replicate_NumericIfLi5EEC1EPfP18ZCom_RSetupNumeric NONAME
    _ZN22ZCom_Replicate_NumericIfLi5EEC1EPfhhhhss NONAME
    _ZN22ZCom_Replicate_NumericIfLi5EEC2EPfP18ZCom_RSetupNumeric NONAME
    _ZN22ZCom_Replicate_NumericIfLi5EEC2EPfhhhhss NONAME
    _ZN22ZCom_Replicate_NumericIfLi5EED0Ev NONAME
    _ZN22ZCom_Replicate_NumericIfLi5EED1Ev NONAME
    _ZN22ZCom_Replicate_NumericIfLi5EED2Ev NONAME
    _ZN22ZCom_Replicate_NumericIfLi6EE10checkStateEv NONAME
    _ZN22ZCom_Replicate_NumericIfLi6EE10unpackDataEP14ZCom_BitStreambj NONAME
    _ZN22ZCom_Replicate_NumericIfLi6EE13clearPeekDataEv NONAME
    _ZN22ZCom_Replicate_NumericIfLi6EE7ProcessE14eZCom_NodeRolej NONAME
    _ZN22ZCom_Replicate_NumericIfLi6EE8getValueEh NONAME
    _ZN22ZCom_Replicate_NumericIfLi6EE8getValueEv NONAME
    _ZN22ZCom_Replicate_NumericIfLi6EE8packDataEP14ZCom_BitStream NONAME
    _ZN22ZCom_Replicate_NumericIfLi6EE8peekDataEv NONAME
    _ZN22ZCom_Replicate_NumericIfLi6EE8setValueEPf NONAME
    _ZN22ZCom_Replicate_NumericIfLi6EE8setValueEhf NONAME
    _ZN22ZCom_Replicate_NumericIfLi6EEC1EPfP18ZCom_RSetupNumeric NONAME
    _ZN22ZCom_Replicate_NumericIfLi6EEC1EPfhhhhss NONAME
    _ZN22ZCom_Replicate_NumericIfLi6EEC2EPfP18ZCom_RSetupNumeric NONAME
    _ZN22ZCom_Replicate_NumericIfLi6EEC2EPfhhhhss NONAME
    _ZN22ZCom_Replicate_NumericIfLi6EED0Ev NONAME
    _ZN22ZCom_Replicate_NumericIfLi6EED1Ev NONAME
    _ZN22ZCom_Replicate_NumericIfLi6EED2Ev NONAME
    _ZN22ZCom_Replicate_NumericIfLi7EE10checkStateEv NONAME
    _ZN22ZCom_Replicate_NumericIfLi7EE10unpackDataEP14ZCom_BitStreambj NONAME
    _ZN22ZCom_Replicate_NumericIfLi7EE13clearPeekDataEv NONAME
    _ZN22ZCom_Replicate_NumericIfLi7EE7ProcessE14eZCom_NodeRolej NONAME
    _ZN22ZCom_Replicate_NumericIfLi7EE8getValueEh NONAME
    _ZN22ZCom_Replicate_NumericIfLi7EE8getValueEv NONAME
    _ZN22ZCom_Replicate_NumericIfLi7EE8packDataEP14ZCom_BitStream NONAME
    _ZN22ZCom_Replicate_NumericIfLi7EE8peekDataEv NONAME
    _ZN22ZCom_Replicate_NumericIfLi7EE8setValueEPf NONAME
    _ZN22ZCom_Replicate_NumericIfLi7EE8setValueEhf NONAME
    _ZN22ZCom_Replicate_NumericIfLi7EEC1EPfP18ZCom_RSetupNumeric NONAME
    _ZN22ZCom_Replicate_NumericIfLi7EEC1EPfhhhhss NONAME
    _ZN22ZCom_Replicate_NumericIfLi7EEC2EPfP18ZCom_RSetupNumeric NONAME
    _ZN22ZCom_Replicate_NumericIfLi7EEC2EPfhhhhss NONAME
    _ZN22ZCom_Replicate_NumericIfLi7EED0Ev NONAME
    _ZN22ZCom_Replicate_NumericIfLi7EED1Ev NONAME
    _ZN22ZCom_Replicate_NumericIfLi7EED2Ev NONAME
    _ZN22ZCom_Replicate_NumericIfLi8EE10checkStateEv NONAME
    _ZN22ZCom_Replicate_NumericIfLi8EE10unpackDataEP14ZCom_BitStreambj NONAME
    _ZN22ZCom_Replicate_NumericIfLi8EE13clearPeekDataEv NONAME
    _ZN22ZCom_Replicate_NumericIfLi8EE7ProcessE14eZCom_NodeRolej NONAME
    _ZN22ZCom_Replicate_NumericIfLi8EE8getValueEh NONAME
    _ZN22ZCom_Replicate_NumericIfLi8EE8getValueEv NONAME
    _ZN22ZCom_Replicate_NumericIfLi8EE8packDataEP14ZCom_BitStream NONAME
    _ZN22ZCom_Replicate_NumericIfLi8EE8peekDataEv NONAME
    _ZN22ZCom_Replicate_NumericIfLi8EE8setValueEPf NONAME
    _ZN22ZCom_Replicate_NumericIfLi8EE8setValueEhf NONAME
    _ZN22ZCom_Replicate_NumericIfLi8EEC1EPfP18ZCom_RSetupNumeric NONAME
    _ZN22ZCom_Replicate_NumericIfLi8EEC1EPfhhhhss NONAME
    _ZN22ZCom_Replicate_NumericIfLi8EEC2EPfP18ZCom_RSetupNumeric NONAME
    _ZN22ZCom_Replicate_NumericIfLi8EEC2EPfhhhhss NONAME
    _ZN22ZCom_Replicate_NumericIfLi8EED0Ev NONAME
    _ZN22ZCom_Replicate_NumericIfLi8EED1Ev NONAME
    _ZN22ZCom_Replicate_NumericIfLi8EED2Ev NONAME
    _ZN22ZCom_Replicate_NumericIfLi9EE10checkStateEv NONAME
    _ZN22ZCom_Replicate_NumericIfLi9EE10unpackDataEP14ZCom_BitStreambj NONAME
    _ZN22ZCom_Replicate_NumericIfLi9EE13clearPeekDataEv NONAME
    _ZN22ZCom_Replicate_NumericIfLi9EE7ProcessE14eZCom_NodeRolej NONAME
    _ZN22ZCom_Replicate_NumericIfLi9EE8getValueEh NONAME
    _ZN22ZCom_Replicate_NumericIfLi9EE8getValueEv NONAME
    _ZN22ZCom_Replicate_NumericIfLi9EE8packDataEP14ZCom_BitStream NONAME
    _ZN22ZCom_Replicate_NumericIfLi9EE8peekDataEv NONAME
    _ZN22ZCom_Replicate_NumericIfLi9EE8setValueEPf NONAME
    _ZN22ZCom_Replicate_NumericIfLi9EE8setValueEhf NONAME
    _ZN22ZCom_Replicate_NumericIfLi9EEC1EPfP18ZCom_RSetupNumeric NONAME
    _ZN22ZCom_Replicate_NumericIfLi9EEC1EPfhhhhss NONAME
    _ZN22ZCom_Replicate_NumericIfLi9EEC2EPfP18ZCom_RSetupNumeric NONAME
    _ZN22ZCom_Replicate_NumericIfLi9EEC2EPfhhhhss NONAME
    _ZN22ZCom_Replicate_NumericIfLi9EED0Ev NONAME
    _ZN22ZCom_Replicate_NumericIfLi9EED1Ev NONAME
    _ZN22ZCom_Replicate_NumericIfLi9EED2Ev NONAME
    _ZN22ZCom_Replicate_NumericIiLi10EE10checkStateEv NONAME
    _ZN22ZCom_Replicate_NumericIiLi10EE10unpackDataEP14ZCom_BitStreambj NONAME
    _ZN22ZCom_Replicate_NumericIiLi10EE13clearPeekDataEv NONAME
    _ZN22ZCom_Replicate_NumericIiLi10EE7ProcessE14eZCom_NodeRolej NONAME
    _ZN22ZCom_Replicate_NumericIiLi10EE8getValueEh NONAME
    _ZN22ZCom_Replicate_NumericIiLi10EE8getValueEv NONAME
    _ZN22ZCom_Replicate_NumericIiLi10EE8packDataEP14ZCom_BitStream NONAME
    _ZN22ZCom_Replicate_NumericIiLi10EE8peekDataEv NONAME
    _ZN22ZCom_Replicate_NumericIiLi10EE8setValueEPi NONAME
    _ZN22ZCom_Replicate_NumericIiLi10EE8setValueEhi NONAME
    _ZN22ZCom_Replicate_NumericIiLi10EEC1EPiP18ZCom_RSetupNumeric NONAME
    _ZN22ZCom_Replicate_NumericIiLi10EEC1EPihhhhss NONAME
    _ZN22ZCom_Replicate_NumericIiLi10EEC2EPiP18ZCom_RSetupNumeric NONAME
    _ZN22ZCom_Replicate_NumericIiLi10EEC2EPihhhhss NONAME
    _ZN22ZCom_Replicate_NumericIiLi10EED0Ev NONAME
    _ZN22ZCom_Replicate_NumericIiLi10EED1Ev NONAME
    _ZN22ZCom_Replicate_NumericIiLi10EED2Ev NONAME
    _ZN22ZCom_Replicate_NumericIiLi11EE10checkStateEv NONAME
    _ZN22ZCom_Replicate_NumericIiLi11EE10unpackDataEP14ZCom_BitStreambj NONAME
    _ZN22ZCom_Replicate_NumericIiLi11EE13clearPeekDataEv NONAME
    _ZN22ZCom_Replicate_NumericIiLi11EE7ProcessE14eZCom_NodeRolej NONAME
    _ZN22ZCom_Replicate_NumericIiLi11EE8getValueEh NONAME
    _ZN22ZCom_Replicate_NumericIiLi11EE8getValueEv NONAME
    _ZN22ZCom_Replicate_NumericIiLi11EE8packDataEP14ZCom_BitStream NONAME
    _ZN22ZCom_Replicate_NumericIiLi11EE8peekDataEv NONAME
    _ZN22ZCom_Replicate_NumericIiLi11EE8setValueEPi NONAME
    _ZN22ZCom_Replicate_NumericIiLi11EE8setValueEhi NONAME
    _ZN22ZCom_Replicate_NumericIiLi11EEC1EPiP18ZCom_RSetupNumeric NONAME
    _ZN22ZCom_Replicate_NumericIiLi11EEC1EPihhhhss NONAME
    _ZN22ZCom_Replicate_NumericIiLi11EEC2EPiP18ZCom_RSetupNumeric NONAME
    _ZN22ZCom_Replicate_NumericIiLi11EEC2EPihhhhss NONAME
    _ZN22ZCom_Replicate_NumericIiLi11EED0Ev NONAME
    _ZN22ZCom_Replicate_NumericIiLi11EED1Ev NONAME
    _ZN22ZCom_Replicate_NumericIiLi11EED2Ev NONAME
    _ZN22ZCom_Replicate_NumericIiLi12EE10checkStateEv NONAME
    _ZN22ZCom_Replicate_NumericIiLi12EE10unpackDataEP14ZCom_BitStreambj NONAME
    _ZN22ZCom_Replicate_NumericIiLi12EE13clearPeekDataEv NONAME
    _ZN22ZCom_Replicate_NumericIiLi12EE7ProcessE14eZCom_NodeRolej NONAME
    _ZN22ZCom_Replicate_NumericIiLi12EE8getValueEh NONAME
    _ZN22ZCom_Replicate_NumericIiLi12EE8getValueEv NONAME
    _ZN22ZCom_Replicate_NumericIiLi12EE8packDataEP14ZCom_BitStream NONAME
    _ZN22ZCom_Replicate_NumericIiLi12EE8peekDataEv NONAME
    _ZN22ZCom_Replicate_NumericIiLi12EE8setValueEPi NONAME
    _ZN22ZCom_Replicate_NumericIiLi12EE8setValueEhi NONAME
    _ZN22ZCom_Replicate_NumericIiLi12EEC1EPiP18ZCom_RSetupNumeric NONAME
    _ZN22ZCom_Replicate_NumericIiLi12EEC1EPihhhhss NONAME
    _ZN22ZCom_Replicate_NumericIiLi12EEC2EPiP18ZCom_RSetupNumeric NONAME
    _ZN22ZCom_Replicate_NumericIiLi12EEC2EPihhhhss NONAME
    _ZN22ZCom_Replicate_NumericIiLi12EED0Ev NONAME
    _ZN22ZCom_Replicate_NumericIiLi12EED1Ev NONAME
    _ZN22ZCom_Replicate_NumericIiLi12EED2Ev NONAME
    _ZN22ZCom_Replicate_NumericIiLi1EE10checkStateEv NONAME
    _ZN22ZCom_Replicate_NumericIiLi1EE10unpackDataEP14ZCom_BitStreambj NONAME
    _ZN22ZCom_Replicate_NumericIiLi1EE13clearPeekDataEv NONAME
    _ZN22ZCom_Replicate_NumericIiLi1EE7ProcessE14eZCom_NodeRolej NONAME
    _ZN22ZCom_Replicate_NumericIiLi1EE8getValueEh NONAME
    _ZN22ZCom_Replicate_NumericIiLi1EE8getValueEv NONAME
    _ZN22ZCom_Replicate_NumericIiLi1EE8packDataEP14ZCom_BitStream NONAME
    _ZN22ZCom_Replicate_NumericIiLi1EE8peekDataEv NONAME
    _ZN22ZCom_Replicate_NumericIiLi1EE8setValueEPi NONAME
    _ZN22ZCom_Replicate_NumericIiLi1EE8setValueEhi NONAME
    _ZN22ZCom_Replicate_NumericIiLi1EEC1EPiP18ZCom_RSetupNumeric NONAME
    _ZN22ZCom_Replicate_NumericIiLi1EEC1EPihhhhss NONAME
    _ZN22ZCom_Replicate_NumericIiLi1EEC2EPiP18ZCom_RSetupNumeric NONAME
    _ZN22ZCom_Replicate_NumericIiLi1EEC2EPihhhhss NONAME
    _ZN22ZCom_Replicate_NumericIiLi1EED0Ev NONAME
    _ZN22ZCom_Replicate_NumericIiLi1EED1Ev NONAME
    _ZN22ZCom_Replicate_NumericIiLi1EED2Ev NONAME
    _ZN22ZCom_Replicate_NumericIiLi2EE10checkStateEv NONAME
    _ZN22ZCom_Replicate_NumericIiLi2EE10unpackDataEP14ZCom_BitStreambj NONAME
    _ZN22ZCom_Replicate_NumericIiLi2EE13clearPeekDataEv NONAME
    _ZN22ZCom_Replicate_NumericIiLi2EE7ProcessE14eZCom_NodeRolej NONAME
    _ZN22ZCom_Replicate_NumericIiLi2EE8getValueEh NONAME
    _ZN22ZCom_Replicate_NumericIiLi2EE8getValueEv NONAME
    _ZN22ZCom_Replicate_NumericIiLi2EE8packDataEP14ZCom_BitStream NONAME
    _ZN22ZCom_Replicate_NumericIiLi2EE8peekDataEv NONAME
    _ZN22ZCom_Replicate_NumericIiLi2EE8setValueEPi NONAME
    _ZN22ZCom_Replicate_NumericIiLi2EE8setValueEhi NONAME
    _ZN22ZCom_Replicate_NumericIiLi2EEC1EPiP18ZCom_RSetupNumeric NONAME
    _ZN22ZCom_Replicate_NumericIiLi2EEC1EPihhhhss NONAME
    _ZN22ZCom_Replicate_NumericIiLi2EEC2EPiP18ZCom_RSetupNumeric NONAME
    _ZN22ZCom_Replicate_NumericIiLi2EEC2EPihhhhss NONAME
    _ZN22ZCom_Replicate_NumericIiLi2EED0Ev NONAME
    _ZN22ZCom_Replicate_NumericIiLi2EED1Ev NONAME
    _ZN22ZCom_Replicate_NumericIiLi2EED2Ev NONAME
    _ZN22ZCom_Replicate_NumericIiLi3EE10checkStateEv NONAME
    _ZN22ZCom_Replicate_NumericIiLi3EE10unpackDataEP14ZCom_BitStreambj NONAME
    _ZN22ZCom_Replicate_NumericIiLi3EE13clearPeekDataEv NONAME
    _ZN22ZCom_Replicate_NumericIiLi3EE7ProcessE14eZCom_NodeRolej NONAME
    _ZN22ZCom_Replicate_NumericIiLi3EE8getValueEh NONAME
    _ZN22ZCom_Replicate_NumericIiLi3EE8getValueEv NONAME
    _ZN22ZCom_Replicate_NumericIiLi3EE8packDataEP14ZCom_BitStream NONAME
    _ZN22ZCom_Replicate_NumericIiLi3EE8peekDataEv NONAME
    _ZN22ZCom_Replicate_NumericIiLi3EE8setValueEPi NONAME
    _ZN22ZCom_Replicate_NumericIiLi3EE8setValueEhi NONAME
    _ZN22ZCom_Replicate_NumericIiLi3EEC1EPiP18ZCom_RSetupNumeric NONAME
    _ZN22ZCom_Replicate_NumericIiLi3EEC1EPihhhhss NONAME
    _ZN22ZCom_Replicate_NumericIiLi3EEC2EPiP18ZCom_RSetupNumeric NONAME
    _ZN22ZCom_Replicate_NumericIiLi3EEC2EPihhhhss NONAME
    _ZN22ZCom_Replicate_NumericIiLi3EED0Ev NONAME
    _ZN22ZCom_Replicate_NumericIiLi3EED1Ev NONAME
    _ZN22ZCom_Replicate_NumericIiLi3EED2Ev NONAME
    _ZN22ZCom_Replicate_NumericIiLi4EE10checkStateEv NONAME
    _ZN22ZCom_Replicate_NumericIiLi4EE10unpackDataEP14ZCom_BitStreambj NONAME
    _ZN22ZCom_Replicate_NumericIiLi4EE13clearPeekDataEv NONAME
    _ZN22ZCom_Replicate_NumericIiLi4EE7ProcessE14eZCom_NodeRolej NONAME
    _ZN22ZCom_Replicate_NumericIiLi4EE8getValueEh NONAME
    _ZN22ZCom_Replicate_NumericIiLi4EE8getValueEv NONAME
    _ZN22ZCom_Replicate_NumericIiLi4EE8packDataEP14ZCom_BitStream NONAME
    _ZN22ZCom_Replicate_NumericIiLi4EE8peekDataEv NONAME
    _ZN22ZCom_Replicate_NumericIiLi4EE8setValueEPi NONAME
    _ZN22ZCom_Replicate_NumericIiLi4EE8setValueEhi NONAME
    _ZN22ZCom_Replicate_NumericIiLi4EEC1EPiP18ZCom_RSetupNumeric NONAME
    _ZN22ZCom_Replicate_NumericIiLi4EEC1EPihhhhss NONAME
    _ZN22ZCom_Replicate_NumericIiLi4EEC2EPiP18ZCom_RSetupNumeric NONAME
    _ZN22ZCom_Replicate_NumericIiLi4EEC2EPihhhhss NONAME
    _ZN22ZCom_Replicate_NumericIiLi4EED0Ev NONAME
    _ZN22ZCom_Replicate_NumericIiLi4EED1Ev NONAME
    _ZN22ZCom_Replicate_NumericIiLi4EED2Ev NONAME
    _ZN22ZCom_Replicate_NumericIiLi5EE10checkStateEv NONAME
    _ZN22ZCom_Replicate_NumericIiLi5EE10unpackDataEP14ZCom_BitStreambj NONAME
    _ZN22ZCom_Replicate_NumericIiLi5EE13clearPeekDataEv NONAME
    _ZN22ZCom_Replicate_NumericIiLi5EE7ProcessE14eZCom_NodeRolej NONAME
    _ZN22ZCom_Replicate_NumericIiLi5EE8getValueEh NONAME
    _ZN22ZCom_Replicate_NumericIiLi5EE8getValueEv NONAME
    _ZN22ZCom_Replicate_NumericIiLi5EE8packDataEP14ZCom_BitStream NONAME
    _ZN22ZCom_Replicate_NumericIiLi5EE8peekDataEv NONAME
    _ZN22ZCom_Replicate_NumericIiLi5EE8setValueEPi NONAME
    _ZN22ZCom_Replicate_NumericIiLi5EE8setValueEhi NONAME
    _ZN22ZCom_Replicate_NumericIiLi5EEC1EPiP18ZCom_RSetupNumeric NONAME
    _ZN22ZCom_Replicate_NumericIiLi5EEC1EPihhhhss NONAME
    _ZN22ZCom_Replicate_NumericIiLi5EEC2EPiP18ZCom_RSetupNumeric NONAME
    _ZN22ZCom_Replicate_NumericIiLi5EEC2EPihhhhss NONAME
    _ZN22ZCom_Replicate_NumericIiLi5EED0Ev NONAME
    _ZN22ZCom_Replicate_NumericIiLi5EED1Ev NONAME
    _ZN22ZCom_Replicate_NumericIiLi5EED2Ev NONAME
    _ZN22ZCom_Replicate_NumericIiLi6EE10checkStateEv NONAME
    _ZN22ZCom_Replicate_NumericIiLi6EE10unpackDataEP14ZCom_BitStreambj NONAME
    _ZN22ZCom_Replicate_NumericIiLi6EE13clearPeekDataEv NONAME
    _ZN22ZCom_Replicate_NumericIiLi6EE7ProcessE14eZCom_NodeRolej NONAME
    _ZN22ZCom_Replicate_NumericIiLi6EE8getValueEh NONAME
    _ZN22ZCom_Replicate_NumericIiLi6EE8getValueEv NONAME
    _ZN22ZCom_Replicate_NumericIiLi6EE8packDataEP14ZCom_BitStream NONAME
    _ZN22ZCom_Replicate_NumericIiLi6EE8peekDataEv NONAME
    _ZN22ZCom_Replicate_NumericIiLi6EE8setValueEPi NONAME
    _ZN22ZCom_Replicate_NumericIiLi6EE8setValueEhi NONAME
    _ZN22ZCom_Replicate_NumericIiLi6EEC1EPiP18ZCom_RSetupNumeric NONAME
    _ZN22ZCom_Replicate_NumericIiLi6EEC1EPihhhhss NONAME
    _ZN22ZCom_Replicate_NumericIiLi6EEC2EPiP18ZCom_RSetupNumeric NONAME
    _ZN22ZCom_Replicate_NumericIiLi6EEC2EPihhhhss NONAME
    _ZN22ZCom_Replicate_NumericIiLi6EED0Ev NONAME
    _ZN22ZCom_Replicate_NumericIiLi6EED1Ev NONAME
    _ZN22ZCom_Replicate_NumericIiLi6EED2Ev NONAME
    _ZN22ZCom_Replicate_NumericIiLi7EE10checkStateEv NONAME
    _ZN22ZCom_Replicate_NumericIiLi7EE10unpackDataEP14ZCom_BitStreambj NONAME
    _ZN22ZCom_Replicate_NumericIiLi7EE13clearPeekDataEv NONAME
    _ZN22ZCom_Replicate_NumericIiLi7EE7ProcessE14eZCom_NodeRolej NONAME
    _ZN22ZCom_Replicate_NumericIiLi7EE8getValueEh NONAME
    _ZN22ZCom_Replicate_NumericIiLi7EE8getValueEv NONAME
    _ZN22ZCom_Replicate_NumericIiLi7EE8packDataEP14ZCom_BitStream NONAME
    _ZN22ZCom_Replicate_NumericIiLi7EE8peekDataEv NONAME
    _ZN22ZCom_Replicate_NumericIiLi7EE8setValueEPi NONAME
    _ZN22ZCom_Replicate_NumericIiLi7EE8setValueEhi NONAME
    _ZN22ZCom_Replicate_NumericIiLi7EEC1EPiP18ZCom_RSetupNumeric NONAME
    _ZN22ZCom_Replicate_NumericIiLi7EEC1EPihhhhss NONAME
    _ZN22ZCom_Replicate_NumericIiLi7EEC2EPiP18ZCom_RSetupNumeric NONAME
    _ZN22ZCom_Replicate_NumericIiLi7EEC2EPihhhhss NONAME
    _ZN22ZCom_Replicate_NumericIiLi7EED0Ev NONAME
    _ZN22ZCom_Replicate_NumericIiLi7EED1Ev NONAME
    _ZN22ZCom_Replicate_NumericIiLi7EED2Ev NONAME
    _ZN22ZCom_Replicate_NumericIiLi8EE10checkStateEv NONAME
    _ZN22ZCom_Replicate_NumericIiLi8EE10unpackDataEP14ZCom_BitStreambj NONAME
    _ZN22ZCom_Replicate_NumericIiLi8EE13clearPeekDataEv NONAME
    _ZN22ZCom_Replicate_NumericIiLi8EE7ProcessE14eZCom_NodeRolej NONAME
    _ZN22ZCom_Replicate_NumericIiLi8EE8getValueEh NONAME
    _ZN22ZCom_Replicate_NumericIiLi8EE8getValueEv NONAME
    _ZN22ZCom_Replicate_NumericIiLi8EE8packDataEP14ZCom_BitStream NONAME
    _ZN22ZCom_Replicate_NumericIiLi8EE8peekDataEv NONAME
    _ZN22ZCom_Replicate_NumericIiLi8EE8setValueEPi NONAME
    _ZN22ZCom_Replicate_NumericIiLi8EE8setValueEhi NONAME
    _ZN22ZCom_Replicate_NumericIiLi8EEC1EPiP18ZCom_RSetupNumeric NONAME
    _ZN22ZCom_Replicate_NumericIiLi8EEC1EPihhhhss NONAME
    _ZN22ZCom_Replicate_NumericIiLi8EEC2EPiP18ZCom_RSetupNumeric NONAME
    _ZN22ZCom_Replicate_NumericIiLi8EEC2EPihhhhss NONAME
    _ZN22ZCom_Replicate_NumericIiLi8EED0Ev NONAME
    _ZN22ZCom_Replicate_NumericIiLi8EED1Ev NONAME
    _ZN22ZCom_Replicate_NumericIiLi8EED2Ev NONAME
    _ZN22ZCom_Replicate_NumericIiLi9EE10checkStateEv NONAME
    _ZN22ZCom_Replicate_NumericIiLi9EE10unpackDataEP14ZCom_BitStreambj NONAME
    _ZN22ZCom_Replicate_NumericIiLi9EE13clearPeekDataEv NONAME
    _ZN22ZCom_Replicate_NumericIiLi9EE7ProcessE14eZCom_NodeRolej NONAME
    _ZN22ZCom_Replicate_NumericIiLi9EE8getValueEh NONAME
    _ZN22ZCom_Replicate_NumericIiLi9EE8getValueEv NONAME
    _ZN22ZCom_Replicate_NumericIiLi9EE8packDataEP14ZCom_BitStream NONAME
    _ZN22ZCom_Replicate_NumericIiLi9EE8peekDataEv NONAME
    _ZN22ZCom_Replicate_NumericIiLi9EE8setValueEPi NONAME
    _ZN22ZCom_Replicate_NumericIiLi9EE8setValueEhi NONAME
    _ZN22ZCom_Replicate_NumericIiLi9EEC1EPiP18ZCom_RSetupNumeric NONAME
    _ZN22ZCom_Replicate_NumericIiLi9EEC1EPihhhhss NONAME
    _ZN22ZCom_Replicate_NumericIiLi9EEC2EPiP18ZCom_RSetupNumeric NONAME
    _ZN22ZCom_Replicate_NumericIiLi9EEC2EPihhhhss NONAME
    _ZN22ZCom_Replicate_NumericIiLi9EED0Ev NONAME
    _ZN22ZCom_Replicate_NumericIiLi9EED1Ev NONAME
    _ZN22ZCom_Replicate_NumericIiLi9EED2Ev NONAME
    _ZN22ZCom_Replicate_NumericIjLi10EE10checkStateEv NONAME
    _ZN22ZCom_Replicate_NumericIjLi10EE10unpackDataEP14ZCom_BitStreambj NONAME
    _ZN22ZCom_Replicate_NumericIjLi10EE13clearPeekDataEv NONAME
    _ZN22ZCom_Replicate_NumericIjLi10EE7ProcessE14eZCom_NodeRolej NONAME
    _ZN22ZCom_Replicate_NumericIjLi10EE8getValueEh NONAME
    _ZN22ZCom_Replicate_NumericIjLi10EE8getValueEv NONAME
    _ZN22ZCom_Replicate_NumericIjLi10EE8packDataEP14ZCom_BitStream NONAME
    _ZN22ZCom_Replicate_NumericIjLi10EE8peekDataEv NONAME
    _ZN22ZCom_Replicate_NumericIjLi10EE8setValueEPj NONAME
    _ZN22ZCom_Replicate_NumericIjLi10EE8setValueEhj NONAME
    _ZN22ZCom_Replicate_NumericIjLi10EEC1EPjP18ZCom_RSetupNumeric NONAME
    _ZN22ZCom_Replicate_NumericIjLi10EEC1EPjhhhhss NONAME
    _ZN22ZCom_Replicate_NumericIjLi10EEC2EPjP18ZCom_RSetupNumeric NONAME
    _ZN22ZCom_Replicate_NumericIjLi10EEC2EPjhhhhss NONAME
    _ZN22ZCom_Replicate_NumericIjLi10EED0Ev NONAME
    _ZN22ZCom_Replicate_NumericIjLi10EED1Ev NONAME
    _ZN22ZCom_Replicate_NumericIjLi10EED2Ev NONAME
    _ZN22ZCom_Replicate_NumericIjLi11EE10checkStateEv NONAME
    _ZN22ZCom_Replicate_NumericIjLi11EE10unpackDataEP14ZCom_BitStreambj NONAME
    _ZN22ZCom_Replicate_NumericIjLi11EE13clearPeekDataEv NONAME
    _ZN22ZCom_Replicate_NumericIjLi11EE7ProcessE14eZCom_NodeRolej NONAME
    _ZN22ZCom_Replicate_NumericIjLi11EE8getValueEh NONAME
    _ZN22ZCom_Replicate_NumericIjLi11EE8getValueEv NONAME
    _ZN22ZCom_Replicate_NumericIjLi11EE8packDataEP14ZCom_BitStream NONAME
    _ZN22ZCom_Replicate_NumericIjLi11EE8peekDataEv NONAME
    _ZN22ZCom_Replicate_NumericIjLi11EE8setValueEPj NONAME
    _ZN22ZCom_Replicate_NumericIjLi11EE8setValueEhj NONAME
    _ZN22ZCom_Replicate_NumericIjLi11EEC1EPjP18ZCom_RSetupNumeric NONAME
    _ZN22ZCom_Replicate_NumericIjLi11EEC1EPjhhhhss NONAME
    _ZN22ZCom_Replicate_NumericIjLi11EEC2EPjP18ZCom_RSetupNumeric NONAME
    _ZN22ZCom_Replicate_NumericIjLi11EEC2EPjhhhhss NONAME
    _ZN22ZCom_Replicate_NumericIjLi11EED0Ev NONAME
    _ZN22ZCom_Replicate_NumericIjLi11EED1Ev NONAME
    _ZN22ZCom_Replicate_NumericIjLi11EED2Ev NONAME
    _ZN22ZCom_Replicate_NumericIjLi12EE10checkStateEv NONAME
    _ZN22ZCom_Replicate_NumericIjLi12EE10unpackDataEP14ZCom_BitStreambj NONAME
    _ZN22ZCom_Replicate_NumericIjLi12EE13clearPeekDataEv NONAME
    _ZN22ZCom_Replicate_NumericIjLi12EE7ProcessE14eZCom_NodeRolej NONAME
    _ZN22ZCom_Replicate_NumericIjLi12EE8getValueEh NONAME
    _ZN22ZCom_Replicate_NumericIjLi12EE8getValueEv NONAME
    _ZN22ZCom_Replicate_NumericIjLi12EE8packDataEP14ZCom_BitStream NONAME
    _ZN22ZCom_Replicate_NumericIjLi12EE8peekDataEv NONAME
    _ZN22ZCom_Replicate_NumericIjLi12EE8setValueEPj NONAME
    _ZN22ZCom_Replicate_NumericIjLi12EE8setValueEhj NONAME
    _ZN22ZCom_Replicate_NumericIjLi12EEC1EPjP18ZCom_RSetupNumeric NONAME
    _ZN22ZCom_Replicate_NumericIjLi12EEC1EPjhhhhss NONAME
    _ZN22ZCom_Replicate_NumericIjLi12EEC2EPjP18ZCom_RSetupNumeric NONAME
    _ZN22ZCom_Replicate_NumericIjLi12EEC2EPjhhhhss NONAME
    _ZN22ZCom_Replicate_NumericIjLi12EED0Ev NONAME
    _ZN22ZCom_Replicate_NumericIjLi12EED1Ev NONAME
    _ZN22ZCom_Replicate_NumericIjLi12EED2Ev NONAME
    _ZN22ZCom_Replicate_NumericIjLi1EE10checkStateEv NONAME
    _ZN22ZCom_Replicate_NumericIjLi1EE10unpackDataEP14ZCom_BitStreambj NONAME
    _ZN22ZCom_Replicate_NumericIjLi1EE13clearPeekDataEv NONAME
    _ZN22ZCom_Replicate_NumericIjLi1EE7ProcessE14eZCom_NodeRolej NONAME
    _ZN22ZCom_Replicate_NumericIjLi1EE8getValueEh NONAME
    _ZN22ZCom_Replicate_NumericIjLi1EE8getValueEv NONAME
    _ZN22ZCom_Replicate_NumericIjLi1EE8packDataEP14ZCom_BitStream NONAME
    _ZN22ZCom_Replicate_NumericIjLi1EE8peekDataEv NONAME
    _ZN22ZCom_Replicate_NumericIjLi1EE8setValueEPj NONAME
    _ZN22ZCom_Replicate_NumericIjLi1EE8setValueEhj NONAME
    _ZN22ZCom_Replicate_NumericIjLi1EEC1EPjP18ZCom_RSetupNumeric NONAME
    _ZN22ZCom_Replicate_NumericIjLi1EEC1EPjhhhhss NONAME
    _ZN22ZCom_Replicate_NumericIjLi1EEC2EPjP18ZCom_RSetupNumeric NONAME
    _ZN22ZCom_Replicate_NumericIjLi1EEC2EPjhhhhss NONAME
    _ZN22ZCom_Replicate_NumericIjLi1EED0Ev NONAME
    _ZN22ZCom_Replicate_NumericIjLi1EED1Ev NONAME
    _ZN22ZCom_Replicate_NumericIjLi1EED2Ev NONAME
    _ZN22ZCom_Replicate_NumericIjLi2EE10checkStateEv NONAME
    _ZN22ZCom_Replicate_NumericIjLi2EE10unpackDataEP14ZCom_BitStreambj NONAME
    _ZN22ZCom_Replicate_NumericIjLi2EE13clearPeekDataEv NONAME
    _ZN22ZCom_Replicate_NumericIjLi2EE7ProcessE14eZCom_NodeRolej NONAME
    _ZN22ZCom_Replicate_NumericIjLi2EE8getValueEh NONAME
    _ZN22ZCom_Replicate_NumericIjLi2EE8getValueEv NONAME
    _ZN22ZCom_Replicate_NumericIjLi2EE8packDataEP14ZCom_BitStream NONAME
    _ZN22ZCom_Replicate_NumericIjLi2EE8peekDataEv NONAME
    _ZN22ZCom_Replicate_NumericIjLi2EE8setValueEPj NONAME
    _ZN22ZCom_Replicate_NumericIjLi2EE8setValueEhj NONAME
    _ZN22ZCom_Replicate_NumericIjLi2EEC1EPjP18ZCom_RSetupNumeric NONAME
    _ZN22ZCom_Replicate_NumericIjLi2EEC1EPjhhhhss NONAME
    _ZN22ZCom_Replicate_NumericIjLi2EEC2EPjP18ZCom_RSetupNumeric NONAME
    _ZN22ZCom_Replicate_NumericIjLi2EEC2EPjhhhhss NONAME
    _ZN22ZCom_Replicate_NumericIjLi2EED0Ev NONAME
    _ZN22ZCom_Replicate_NumericIjLi2EED1Ev NONAME
    _ZN22ZCom_Replicate_NumericIjLi2EED2Ev NONAME
    _ZN22ZCom_Replicate_NumericIjLi3EE10checkStateEv NONAME
    _ZN22ZCom_Replicate_NumericIjLi3EE10unpackDataEP14ZCom_BitStreambj NONAME
    _ZN22ZCom_Replicate_NumericIjLi3EE13clearPeekDataEv NONAME
    _ZN22ZCom_Replicate_NumericIjLi3EE7ProcessE14eZCom_NodeRolej NONAME
    _ZN22ZCom_Replicate_NumericIjLi3EE8getValueEh NONAME
    _ZN22ZCom_Replicate_NumericIjLi3EE8getValueEv NONAME
    _ZN22ZCom_Replicate_NumericIjLi3EE8packDataEP14ZCom_BitStream NONAME
    _ZN22ZCom_Replicate_NumericIjLi3EE8peekDataEv NONAME
    _ZN22ZCom_Replicate_NumericIjLi3EE8setValueEPj NONAME
    _ZN22ZCom_Replicate_NumericIjLi3EE8setValueEhj NONAME
    _ZN22ZCom_Replicate_NumericIjLi3EEC1EPjP18ZCom_RSetupNumeric NONAME
    _ZN22ZCom_Replicate_NumericIjLi3EEC1EPjhhhhss NONAME
    _ZN22ZCom_Replicate_NumericIjLi3EEC2EPjP18ZCom_RSetupNumeric NONAME
    _ZN22ZCom_Replicate_NumericIjLi3EEC2EPjhhhhss NONAME
    _ZN22ZCom_Replicate_NumericIjLi3EED0Ev NONAME
    _ZN22ZCom_Replicate_NumericIjLi3EED1Ev NONAME
    _ZN22ZCom_Replicate_NumericIjLi3EED2Ev NONAME
    _ZN22ZCom_Replicate_NumericIjLi4EE10checkStateEv NONAME
    _ZN22ZCom_Replicate_NumericIjLi4EE10unpackDataEP14ZCom_BitStreambj NONAME
    _ZN22ZCom_Replicate_NumericIjLi4EE13clearPeekDataEv NONAME
    _ZN22ZCom_Replicate_NumericIjLi4EE7ProcessE14eZCom_NodeRolej NONAME
    _ZN22ZCom_Replicate_NumericIjLi4EE8getValueEh NONAME
    _ZN22ZCom_Replicate_NumericIjLi4EE8getValueEv NONAME
    _ZN22ZCom_Replicate_NumericIjLi4EE8packDataEP14ZCom_BitStream NONAME
    _ZN22ZCom_Replicate_NumericIjLi4EE8peekDataEv NONAME
    _ZN22ZCom_Replicate_NumericIjLi4EE8setValueEPj NONAME
    _ZN22ZCom_Replicate_NumericIjLi4EE8setValueEhj NONAME
    _ZN22ZCom_Replicate_NumericIjLi4EEC1EPjP18ZCom_RSetupNumeric NONAME
    _ZN22ZCom_Replicate_NumericIjLi4EEC1EPjhhhhss NONAME
    _ZN22ZCom_Replicate_NumericIjLi4EEC2EPjP18ZCom_RSetupNumeric NONAME
    _ZN22ZCom_Replicate_NumericIjLi4EEC2EPjhhhhss NONAME
    _ZN22ZCom_Replicate_NumericIjLi4EED0Ev NONAME
    _ZN22ZCom_Replicate_NumericIjLi4EED1Ev NONAME
    _ZN22ZCom_Replicate_NumericIjLi4EED2Ev NONAME
    _ZN22ZCom_Replicate_NumericIjLi5EE10checkStateEv NONAME
    _ZN22ZCom_Replicate_NumericIjLi5EE10unpackDataEP14ZCom_BitStreambj NONAME
    _ZN22ZCom_Replicate_NumericIjLi5EE13clearPeekDataEv NONAME
    _ZN22ZCom_Replicate_NumericIjLi5EE7ProcessE14eZCom_NodeRolej NONAME
    _ZN22ZCom_Replicate_NumericIjLi5EE8getValueEh NONAME
    _ZN22ZCom_Replicate_NumericIjLi5EE8getValueEv NONAME
    _ZN22ZCom_Replicate_NumericIjLi5EE8packDataEP14ZCom_BitStream NONAME
    _ZN22ZCom_Replicate_NumericIjLi5EE8peekDataEv NONAME
    _ZN22ZCom_Replicate_NumericIjLi5EE8setValueEPj NONAME
    _ZN22ZCom_Replicate_NumericIjLi5EE8setValueEhj NONAME
    _ZN22ZCom_Replicate_NumericIjLi5EEC1EPjP18ZCom_RSetupNumeric NONAME
    _ZN22ZCom_Replicate_NumericIjLi5EEC1EPjhhhhss NONAME
    _ZN22ZCom_Replicate_NumericIjLi5EEC2EPjP18ZCom_RSetupNumeric NONAME
    _ZN22ZCom_Replicate_NumericIjLi5EEC2EPjhhhhss NONAME
    _ZN22ZCom_Replicate_NumericIjLi5EED0Ev NONAME
    _ZN22ZCom_Replicate_NumericIjLi5EED1Ev NONAME
    _ZN22ZCom_Replicate_NumericIjLi5EED2Ev NONAME
    _ZN22ZCom_Replicate_NumericIjLi6EE10checkStateEv NONAME
    _ZN22ZCom_Replicate_NumericIjLi6EE10unpackDataEP14ZCom_BitStreambj NONAME
    _ZN22ZCom_Replicate_NumericIjLi6EE13clearPeekDataEv NONAME
    _ZN22ZCom_Replicate_NumericIjLi6EE7ProcessE14eZCom_NodeRolej NONAME
    _ZN22ZCom_Replicate_NumericIjLi6EE8getValueEh NONAME
    _ZN22ZCom_Replicate_NumericIjLi6EE8getValueEv NONAME
    _ZN22ZCom_Replicate_NumericIjLi6EE8packDataEP14ZCom_BitStream NONAME
    _ZN22ZCom_Replicate_NumericIjLi6EE8peekDataEv NONAME
    _ZN22ZCom_Replicate_NumericIjLi6EE8setValueEPj NONAME
    _ZN22ZCom_Replicate_NumericIjLi6EE8setValueEhj NONAME
    _ZN22ZCom_Replicate_NumericIjLi6EEC1EPjP18ZCom_RSetupNumeric NONAME
    _ZN22ZCom_Replicate_NumericIjLi6EEC1EPjhhhhss NONAME
    _ZN22ZCom_Replicate_NumericIjLi6EEC2EPjP18ZCom_RSetupNumeric NONAME
    _ZN22ZCom_Replicate_NumericIjLi6EEC2EPjhhhhss NONAME
    _ZN22ZCom_Replicate_NumericIjLi6EED0Ev NONAME
    _ZN22ZCom_Replicate_NumericIjLi6EED1Ev NONAME
    _ZN22ZCom_Replicate_NumericIjLi6EED2Ev NONAME
    _ZN22ZCom_Replicate_NumericIjLi7EE10checkStateEv NONAME
    _ZN22ZCom_Replicate_NumericIjLi7EE10unpackDataEP14ZCom_BitStreambj NONAME
    _ZN22ZCom_Replicate_NumericIjLi7EE13clearPeekDataEv NONAME
    _ZN22ZCom_Replicate_NumericIjLi7EE7ProcessE14eZCom_NodeRolej NONAME
    _ZN22ZCom_Replicate_NumericIjLi7EE8getValueEh NONAME
    _ZN22ZCom_Replicate_NumericIjLi7EE8getValueEv NONAME
    _ZN22ZCom_Replicate_NumericIjLi7EE8packDataEP14ZCom_BitStream NONAME
    _ZN22ZCom_Replicate_NumericIjLi7EE8peekDataEv NONAME
    _ZN22ZCom_Replicate_NumericIjLi7EE8setValueEPj NONAME
    _ZN22ZCom_Replicate_NumericIjLi7EE8setValueEhj NONAME
    _ZN22ZCom_Replicate_NumericIjLi7EEC1EPjP18ZCom_RSetupNumeric NONAME
    _ZN22ZCom_Replicate_NumericIjLi7EEC1EPjhhhhss NONAME
    _ZN22ZCom_Replicate_NumericIjLi7EEC2EPjP18ZCom_RSetupNumeric NONAME
    _ZN22ZCom_Replicate_NumericIjLi7EEC2EPjhhhhss NONAME
    _ZN22ZCom_Replicate_NumericIjLi7EED0Ev NONAME
    _ZN22ZCom_Replicate_NumericIjLi7EED1Ev NONAME
    _ZN22ZCom_Replicate_NumericIjLi7EED2Ev NONAME
    _ZN22ZCom_Replicate_NumericIjLi8EE10checkStateEv NONAME
    _ZN22ZCom_Replicate_NumericIjLi8EE10unpackDataEP14ZCom_BitStreambj NONAME
    _ZN22ZCom_Replicate_NumericIjLi8EE13clearPeekDataEv NONAME
    _ZN22ZCom_Replicate_NumericIjLi8EE7ProcessE14eZCom_NodeRolej NONAME
    _ZN22ZCom_Replicate_NumericIjLi8EE8getValueEh NONAME
    _ZN22ZCom_Replicate_NumericIjLi8EE8getValueEv NONAME
    _ZN22ZCom_Replicate_NumericIjLi8EE8packDataEP14ZCom_BitStream NONAME
    _ZN22ZCom_Replicate_NumericIjLi8EE8peekDataEv NONAME
    _ZN22ZCom_Replicate_NumericIjLi8EE8setValueEPj NONAME
    _ZN22ZCom_Replicate_NumericIjLi8EE8setValueEhj NONAME
    _ZN22ZCom_Replicate_NumericIjLi8EEC1EPjP18ZCom_RSetupNumeric NONAME
    _ZN22ZCom_Replicate_NumericIjLi8EEC1EPjhhhhss NONAME
    _ZN22ZCom_Replicate_NumericIjLi8EEC2EPjP18ZCom_RSetupNumeric NONAME
    _ZN22ZCom_Replicate_NumericIjLi8EEC2EPjhhhhss NONAME
    _ZN22ZCom_Replicate_NumericIjLi8EED0Ev NONAME
    _ZN22ZCom_Replicate_NumericIjLi8EED1Ev NONAME
    _ZN22ZCom_Replicate_NumericIjLi8EED2Ev NONAME
    _ZN22ZCom_Replicate_NumericIjLi9EE10checkStateEv NONAME
    _ZN22ZCom_Replicate_NumericIjLi9EE10unpackDataEP14ZCom_BitStreambj NONAME
    _ZN22ZCom_Replicate_NumericIjLi9EE13clearPeekDataEv NONAME
    _ZN22ZCom_Replicate_NumericIjLi9EE7ProcessE14eZCom_NodeRolej NONAME
    _ZN22ZCom_Replicate_NumericIjLi9EE8getValueEh NONAME
    _ZN22ZCom_Replicate_NumericIjLi9EE8getValueEv NONAME
    _ZN22ZCom_Replicate_NumericIjLi9EE8packDataEP14ZCom_BitStream NONAME
    _ZN22ZCom_Replicate_NumericIjLi9EE8peekDataEv NONAME
    _ZN22ZCom_Replicate_NumericIjLi9EE8setValueEPj NONAME
    _ZN22ZCom_Replicate_NumericIjLi9EE8setValueEhj NONAME
    _ZN22ZCom_Replicate_NumericIjLi9EEC1EPjP18ZCom_RSetupNumeric NONAME
    _ZN22ZCom_Replicate_NumericIjLi9EEC1EPjhhhhss NONAME
    _ZN22ZCom_Replicate_NumericIjLi9EEC2EPjP18ZCom_RSetupNumeric NONAME
    _ZN22ZCom_Replicate_NumericIjLi9EEC2EPjhhhhss NONAME
    _ZN22ZCom_Replicate_NumericIjLi9EED0Ev NONAME
    _ZN22ZCom_Replicate_NumericIjLi9EED1Ev NONAME
    _ZN22ZCom_Replicate_NumericIjLi9EED2Ev NONAME
    _ZN22ZCom_Replicate_Stringp10checkStateEv NONAME
    _ZN22ZCom_Replicate_Stringp10unpackDataEP14ZCom_BitStreambj NONAME
    _ZN22ZCom_Replicate_Stringp13clearPeekDataEv NONAME
    _ZN22ZCom_Replicate_Stringp7ProcessE14eZCom_NodeRolej NONAME
    _ZN22ZCom_Replicate_Stringp8packDataEP14ZCom_BitStream NONAME
    _ZN22ZCom_Replicate_Stringp8peekDataEv NONAME
    _ZN22ZCom_Replicate_StringpC1EPcP17ZCom_RSetupString NONAME
    _ZN22ZCom_Replicate_StringpC1EPcthhhss NONAME
    _ZN22ZCom_Replicate_StringpC2EPcP17ZCom_RSetupString NONAME
    _ZN22ZCom_Replicate_StringpC2EPcthhhss NONAME
    _ZN22ZCom_Replicate_StringpD0Ev NONAME
    _ZN22ZCom_Replicate_StringpD1Ev NONAME
    _ZN22ZCom_Replicate_StringpD2Ev NONAME
    _ZN23ZCom_Replicate_MovementIfLi1EE10onDataLostEjjP14ZCom_BitStream NONAME
    _ZN23ZCom_Replicate_MovementIfLi1EE11onDataAckedEjjP14ZCom_BitStream NONAME
    _ZN23ZCom_Replicate_MovementIfLi1EE11updateInputEPfP14ZCom_BitStream NONAME
    _ZN23ZCom_Replicate_MovementIfLi1EE11updateStateEPfS1_S1_b NONAME
    _ZN23ZCom_Replicate_MovementIfLi1EE12setTimeScaleEf NONAME
    _ZN23ZCom_Replicate_MovementIfLi1EE13clearPeekDataEv NONAME
    _ZN23ZCom_Replicate_MovementIfLi1EE13onPreSendDataEj14eZCom_NodeRolePj NONAME
    _ZN23ZCom_Replicate_MovementIfLi1EE13overrideStateEPfS1_S1_i NONAME
    _ZN23ZCom_Replicate_MovementIfLi1EE14getSplinePointEfPf NONAME
    _ZN23ZCom_Replicate_MovementIfLi1EE14onDataReceivedEj14eZCom_NodeRoleR14ZCom_BitStreambj NONAME
    _ZN23ZCom_Replicate_MovementIfLi1EE15getAccelerationEPf NONAME
    _ZN23ZCom_Replicate_MovementIfLi1EE16onPacketReceivedEj NONAME
    _ZN23ZCom_Replicate_MovementIfLi1EE17onConnectionAddedEj14eZCom_NodeRole NONAME
    _ZN23ZCom_Replicate_MovementIfLi1EE17setUpdateListenerEP23ZCom_MoveUpdateListenerIfE NONAME
    _ZN23ZCom_Replicate_MovementIfLi1EE18onLocalRoleChangedE14eZCom_NodeRoleS1_ NONAME
    _ZN23ZCom_Replicate_MovementIfLi1EE19onConnectionRemovedEj14eZCom_NodeRole NONAME
    _ZN23ZCom_Replicate_MovementIfLi1EE19onRemoteRoleChangedEj14eZCom_NodeRoleS1_ NONAME
    _ZN23ZCom_Replicate_MovementIfLi1EE21getSplineControlPointEjPf NONAME
    _ZN23ZCom_Replicate_MovementIfLi1EE23getExtrapolatedPositionEiPf NONAME
    _ZN23ZCom_Replicate_MovementIfLi1EE23getExtrapolatedVelocityEiPf NONAME
    _ZN23ZCom_Replicate_MovementIfLi1EE23getLastReceivedPositionEPf NONAME
    _ZN23ZCom_Replicate_MovementIfLi1EE23getLastReceivedVelocityEPf NONAME
    _ZN23ZCom_Replicate_MovementIfLi1EE24getNextInputHistoryEntryEPjPPv NONAME
    _ZN23ZCom_Replicate_MovementIfLi1EE7ProcessE14eZCom_NodeRolej NONAME
    _ZN23ZCom_Replicate_MovementIfLi1EE8peekDataEv NONAME
    _ZN23ZCom_Replicate_MovementIfLi1EEC1EP19ZCom_RSetupMovementIfE NONAME
    _ZN23ZCom_Replicate_MovementIfLi1EEC1Ehhhhss NONAME
    _ZN23ZCom_Replicate_MovementIfLi1EEC2EP19ZCom_RSetupMovementIfE NONAME
    _ZN23ZCom_Replicate_MovementIfLi1EEC2Ehhhhss NONAME
    _ZN23ZCom_Replicate_MovementIfLi1EED0Ev NONAME
    _ZN23ZCom_Replicate_MovementIfLi1EED1Ev NONAME
    _ZN23ZCom_Replicate_MovementIfLi1EED2Ev NONAME
    _ZN23ZCom_Replicate_MovementIfLi2EE10onDataLostEjjP14ZCom_BitStream NONAME
    _ZN23ZCom_Replicate_MovementIfLi2EE11onDataAckedEjjP14ZCom_BitStream NONAME
    _ZN23ZCom_Replicate_MovementIfLi2EE11updateInputEPfP14ZCom_BitStream NONAME
    _ZN23ZCom_Replicate_MovementIfLi2EE11updateStateEPfS1_S1_b NONAME
    _ZN23ZCom_Replicate_MovementIfLi2EE12setTimeScaleEf NONAME
    _ZN23ZCom_Replicate_MovementIfLi2EE13clearPeekDataEv NONAME
    _ZN23ZCom_Replicate_MovementIfLi2EE13onPreSendDataEj14eZCom_NodeRolePj NONAME
    _ZN23ZCom_Replicate_MovementIfLi2EE13overrideStateEPfS1_S1_i NONAME
    _ZN23ZCom_Replicate_MovementIfLi2EE14getSplinePointEfPf NONAME
    _ZN23ZCom_Replicate_MovementIfLi2EE14onDataReceivedEj14eZCom_NodeRoleR14ZCom_BitStreambj NONAME
    _ZN23ZCom_Replicate_MovementIfLi2EE15getAccelerationEPf NONAME
    _ZN23ZCom_Replicate_MovementIfLi2EE16onPacketReceivedEj NONAME
    _ZN23ZCom_Replicate_MovementIfLi2EE17onConnectionAddedEj14eZCom_NodeRole NONAME
    _ZN23ZCom_Replicate_MovementIfLi2EE17setUpdateListenerEP23ZCom_MoveUpdateListenerIfE NONAME
    _ZN23ZCom_Replicate_MovementIfLi2EE18onLocalRoleChangedE14eZCom_NodeRoleS1_ NONAME
    _ZN23ZCom_Replicate_MovementIfLi2EE19onConnectionRemovedEj14eZCom_NodeRole NONAME
    _ZN23ZCom_Replicate_MovementIfLi2EE19onRemoteRoleChangedEj14eZCom_NodeRoleS1_ NONAME
    _ZN23ZCom_Replicate_MovementIfLi2EE21getSplineControlPointEjPf NONAME
    _ZN23ZCom_Replicate_MovementIfLi2EE23getExtrapolatedPositionEiPf NONAME
    _ZN23ZCom_Replicate_MovementIfLi2EE23getExtrapolatedVelocityEiPf NONAME
    _ZN23ZCom_Replicate_MovementIfLi2EE23getLastReceivedPositionEPf NONAME
    _ZN23ZCom_Replicate_MovementIfLi2EE23getLastReceivedVelocityEPf NONAME
    _ZN23ZCom_Replicate_MovementIfLi2EE24getNextInputHistoryEntryEPjPPv NONAME
    _ZN23ZCom_Replicate_MovementIfLi2EE7ProcessE14eZCom_NodeRolej NONAME
    _ZN23ZCom_Replicate_MovementIfLi2EE8peekDataEv NONAME
    _ZN23ZCom_Replicate_MovementIfLi2EEC1EP19ZCom_RSetupMovementIfE NONAME
    _ZN23ZCom_Replicate_MovementIfLi2EEC1Ehhhhss NONAME
    _ZN23ZCom_Replicate_MovementIfLi2EEC2EP19ZCom_RSetupMovementIfE NONAME
    _ZN23ZCom_Replicate_MovementIfLi2EEC2Ehhhhss NONAME
    _ZN23ZCom_Replicate_MovementIfLi2EED0Ev NONAME
    _ZN23ZCom_Replicate_MovementIfLi2EED1Ev NONAME
    _ZN23ZCom_Replicate_MovementIfLi2EED2Ev NONAME
    _ZN23ZCom_Replicate_MovementIfLi3EE10onDataLostEjjP14ZCom_BitStream NONAME
    _ZN23ZCom_Replicate_MovementIfLi3EE11onDataAckedEjjP14ZCom_BitStream NONAME
    _ZN23ZCom_Replicate_MovementIfLi3EE11updateInputEPfP14ZCom_BitStream NONAME
    _ZN23ZCom_Replicate_MovementIfLi3EE11updateStateEPfS1_S1_b NONAME
    _ZN23ZCom_Replicate_MovementIfLi3EE12setTimeScaleEf NONAME
    _ZN23ZCom_Replicate_MovementIfLi3EE13clearPeekDataEv NONAME
    _ZN23ZCom_Replicate_MovementIfLi3EE13onPreSendDataEj14eZCom_NodeRolePj NONAME
    _ZN23ZCom_Replicate_MovementIfLi3EE13overrideStateEPfS1_S1_i NONAME
    _ZN23ZCom_Replicate_MovementIfLi3EE14getSplinePointEfPf NONAME
    _ZN23ZCom_Replicate_MovementIfLi3EE14onDataReceivedEj14eZCom_NodeRoleR14ZCom_BitStreambj NONAME
    _ZN23ZCom_Replicate_MovementIfLi3EE15getAccelerationEPf NONAME
    _ZN23ZCom_Replicate_MovementIfLi3EE16onPacketReceivedEj NONAME
    _ZN23ZCom_Replicate_MovementIfLi3EE17onConnectionAddedEj14eZCom_NodeRole NONAME
    _ZN23ZCom_Replicate_MovementIfLi3EE17setUpdateListenerEP23ZCom_MoveUpdateListenerIfE NONAME
    _ZN23ZCom_Replicate_MovementIfLi3EE18onLocalRoleChangedE14eZCom_NodeRoleS1_ NONAME
    _ZN23ZCom_Replicate_MovementIfLi3EE19onConnectionRemovedEj14eZCom_NodeRole NONAME
    _ZN23ZCom_Replicate_MovementIfLi3EE19onRemoteRoleChangedEj14eZCom_NodeRoleS1_ NONAME
    _ZN23ZCom_Replicate_MovementIfLi3EE21getSplineControlPointEjPf NONAME
    _ZN23ZCom_Replicate_MovementIfLi3EE23getExtrapolatedPositionEiPf NONAME
    _ZN23ZCom_Replicate_MovementIfLi3EE23getExtrapolatedVelocityEiPf NONAME
    _ZN23ZCom_Replicate_MovementIfLi3EE23getLastReceivedPositionEPf NONAME
    _ZN23ZCom_Replicate_MovementIfLi3EE23getLastReceivedVelocityEPf NONAME
    _ZN23ZCom_Replicate_MovementIfLi3EE24getNextInputHistoryEntryEPjPPv NONAME
    _ZN23ZCom_Replicate_MovementIfLi3EE7ProcessE14eZCom_NodeRolej NONAME
    _ZN23ZCom_Replicate_MovementIfLi3EE8peekDataEv NONAME
    _ZN23ZCom_Replicate_MovementIfLi3EEC1EP19ZCom_RSetupMovementIfE NONAME
    _ZN23ZCom_Replicate_MovementIfLi3EEC1Ehhhhss NONAME
    _ZN23ZCom_Replicate_MovementIfLi3EEC2EP19ZCom_RSetupMovementIfE NONAME
    _ZN23ZCom_Replicate_MovementIfLi3EEC2Ehhhhss NONAME
    _ZN23ZCom_Replicate_MovementIfLi3EED0Ev NONAME
    _ZN23ZCom_Replicate_MovementIfLi3EED1Ev NONAME
    _ZN23ZCom_Replicate_MovementIfLi3EED2Ev NONAME
    _ZN23ZCom_Replicate_MovementIiLi1EE10onDataLostEjjP14ZCom_BitStream NONAME
    _ZN23ZCom_Replicate_MovementIiLi1EE11onDataAckedEjjP14ZCom_BitStream NONAME
    _ZN23ZCom_Replicate_MovementIiLi1EE11updateInputEPiP14ZCom_BitStream NONAME
    _ZN23ZCom_Replicate_MovementIiLi1EE11updateStateEPiPfS2_b NONAME
    _ZN23ZCom_Replicate_MovementIiLi1EE12setTimeScaleEf NONAME
    _ZN23ZCom_Replicate_MovementIiLi1EE13clearPeekDataEv NONAME
    _ZN23ZCom_Replicate_MovementIiLi1EE13onPreSendDataEj14eZCom_NodeRolePj NONAME
    _ZN23ZCom_Replicate_MovementIiLi1EE13overrideStateEPiPfS2_i NONAME
    _ZN23ZCom_Replicate_MovementIiLi1EE14getSplinePointEfPi NONAME
    _ZN23ZCom_Replicate_MovementIiLi1EE14onDataReceivedEj14eZCom_NodeRoleR14ZCom_BitStreambj NONAME
    _ZN23ZCom_Replicate_MovementIiLi1EE15getAccelerationEPf NONAME
    _ZN23ZCom_Replicate_MovementIiLi1EE16onPacketReceivedEj NONAME
    _ZN23ZCom_Replicate_MovementIiLi1EE17onConnectionAddedEj14eZCom_NodeRole NONAME
    _ZN23ZCom_Replicate_MovementIiLi1EE17setUpdateListenerEP23ZCom_MoveUpdateListenerIiE NONAME
    _ZN23ZCom_Replicate_MovementIiLi1EE18onLocalRoleChangedE14eZCom_NodeRoleS1_ NONAME
    _ZN23ZCom_Replicate_MovementIiLi1EE19onConnectionRemovedEj14eZCom_NodeRole NONAME
    _ZN23ZCom_Replicate_MovementIiLi1EE19onRemoteRoleChangedEj14eZCom_NodeRoleS1_ NONAME
    _ZN23ZCom_Replicate_MovementIiLi1EE21getSplineControlPointEjPi NONAME
    _ZN23ZCom_Replicate_MovementIiLi1EE23getExtrapolatedPositionEiPi NONAME
    _ZN23ZCom_Replicate_MovementIiLi1EE23getExtrapolatedVelocityEiPf NONAME
    _ZN23ZCom_Replicate_MovementIiLi1EE23getLastReceivedPositionEPi NONAME
    _ZN23ZCom_Replicate_MovementIiLi1EE23getLastReceivedVelocityEPf NONAME
    _ZN23ZCom_Replicate_MovementIiLi1EE24getNextInputHistoryEntryEPjPPv NONAME
    _ZN23ZCom_Replicate_MovementIiLi1EE7ProcessE14eZCom_NodeRolej NONAME
    _ZN23ZCom_Replicate_MovementIiLi1EE8peekDataEv NONAME
    _ZN23ZCom_Replicate_MovementIiLi1EEC1EP19ZCom_RSetupMovementIiE NONAME
    _ZN23ZCom_Replicate_MovementIiLi1EEC1Ehhhhss NONAME
    _ZN23ZCom_Replicate_MovementIiLi1EEC2EP19ZCom_RSetupMovementIiE NONAME
    _ZN23ZCom_Replicate_MovementIiLi1EEC2Ehhhhss NONAME
    _ZN23ZCom_Replicate_MovementIiLi1EED0Ev NONAME
    _ZN23ZCom_Replicate_MovementIiLi1EED1Ev NONAME
    _ZN23ZCom_Replicate_MovementIiLi1EED2Ev NONAME
    _ZN23ZCom_Replicate_MovementIiLi2EE10onDataLostEjjP14ZCom_BitStream NONAME
    _ZN23ZCom_Replicate_MovementIiLi2EE11onDataAckedEjjP14ZCom_BitStream NONAME
    _ZN23ZCom_Replicate_MovementIiLi2EE11updateInputEPiP14ZCom_BitStream NONAME
    _ZN23ZCom_Replicate_MovementIiLi2EE11updateStateEPiPfS2_b NONAME
    _ZN23ZCom_Replicate_MovementIiLi2EE12setTimeScaleEf NONAME
    _ZN23ZCom_Replicate_MovementIiLi2EE13clearPeekDataEv NONAME
    _ZN23ZCom_Replicate_MovementIiLi2EE13onPreSendDataEj14eZCom_NodeRolePj NONAME
    _ZN23ZCom_Replicate_MovementIiLi2EE13overrideStateEPiPfS2_i NONAME
    _ZN23ZCom_Replicate_MovementIiLi2EE14getSplinePointEfPi NONAME
    _ZN23ZCom_Replicate_MovementIiLi2EE14onDataReceivedEj14eZCom_NodeRoleR14ZCom_BitStreambj NONAME
    _ZN23ZCom_Replicate_MovementIiLi2EE15getAccelerationEPf NONAME
    _ZN23ZCom_Replicate_MovementIiLi2EE16onPacketReceivedEj NONAME
    _ZN23ZCom_Replicate_MovementIiLi2EE17onConnectionAddedEj14eZCom_NodeRole NONAME
    _ZN23ZCom_Replicate_MovementIiLi2EE17setUpdateListenerEP23ZCom_MoveUpdateListenerIiE NONAME
    _ZN23ZCom_Replicate_MovementIiLi2EE18onLocalRoleChangedE14eZCom_NodeRoleS1_ NONAME
    _ZN23ZCom_Replicate_MovementIiLi2EE19onConnectionRemovedEj14eZCom_NodeRole NONAME
    _ZN23ZCom_Replicate_MovementIiLi2EE19onRemoteRoleChangedEj14eZCom_NodeRoleS1_ NONAME
    _ZN23ZCom_Replicate_MovementIiLi2EE21getSplineControlPointEjPi NONAME
    _ZN23ZCom_Replicate_MovementIiLi2EE23getExtrapolatedPositionEiPi NONAME
    _ZN23ZCom_Replicate_MovementIiLi2EE23getExtrapolatedVelocityEiPf NONAME
    _ZN23ZCom_Replicate_MovementIiLi2EE23getLastReceivedPositionEPi NONAME
    _ZN23ZCom_Replicate_MovementIiLi2EE23getLastReceivedVelocityEPf NONAME
    _ZN23ZCom_Replicate_MovementIiLi2EE24getNextInputHistoryEntryEPjPPv NONAME
    _ZN23ZCom_Replicate_MovementIiLi2EE7ProcessE14eZCom_NodeRolej NONAME
    _ZN23ZCom_Replicate_MovementIiLi2EE8peekDataEv NONAME
    _ZN23ZCom_Replicate_MovementIiLi2EEC1EP19ZCom_RSetupMovementIiE NONAME
    _ZN23ZCom_Replicate_MovementIiLi2EEC1Ehhhhss NONAME
    _ZN23ZCom_Replicate_MovementIiLi2EEC2EP19ZCom_RSetupMovementIiE NONAME
    _ZN23ZCom_Replicate_MovementIiLi2EEC2Ehhhhss NONAME
    _ZN23ZCom_Replicate_MovementIiLi2EED0Ev NONAME
    _ZN23ZCom_Replicate_MovementIiLi2EED1Ev NONAME
    _ZN23ZCom_Replicate_MovementIiLi2EED2Ev NONAME
    _ZN23ZCom_Replicate_MovementIiLi3EE10onDataLostEjjP14ZCom_BitStream NONAME
    _ZN23ZCom_Replicate_MovementIiLi3EE11onDataAckedEjjP14ZCom_BitStream NONAME
    _ZN23ZCom_Replicate_MovementIiLi3EE11updateInputEPiP14ZCom_BitStream NONAME
    _ZN23ZCom_Replicate_MovementIiLi3EE11updateStateEPiPfS2_b NONAME
    _ZN23ZCom_Replicate_MovementIiLi3EE12setTimeScaleEf NONAME
    _ZN23ZCom_Replicate_MovementIiLi3EE13clearPeekDataEv NONAME
    _ZN23ZCom_Replicate_MovementIiLi3EE13onPreSendDataEj14eZCom_NodeRolePj NONAME
    _ZN23ZCom_Replicate_MovementIiLi3EE13overrideStateEPiPfS2_i NONAME
    _ZN23ZCom_Replicate_MovementIiLi3EE14getSplinePointEfPi NONAME
    _ZN23ZCom_Replicate_MovementIiLi3EE14onDataReceivedEj14eZCom_NodeRoleR14ZCom_BitStreambj NONAME
    _ZN23ZCom_Replicate_MovementIiLi3EE15getAccelerationEPf NONAME
    _ZN23ZCom_Replicate_MovementIiLi3EE16onPacketReceivedEj NONAME
    _ZN23ZCom_Replicate_MovementIiLi3EE17onConnectionAddedEj14eZCom_NodeRole NONAME
    _ZN23ZCom_Replicate_MovementIiLi3EE17setUpdateListenerEP23ZCom_MoveUpdateListenerIiE NONAME
    _ZN23ZCom_Replicate_MovementIiLi3EE18onLocalRoleChangedE14eZCom_NodeRoleS1_ NONAME
    _ZN23ZCom_Replicate_MovementIiLi3EE19onConnectionRemovedEj14eZCom_NodeRole NONAME
    _ZN23ZCom_Replicate_MovementIiLi3EE19onRemoteRoleChangedEj14eZCom_NodeRoleS1_ NONAME
    _ZN23ZCom_Replicate_MovementIiLi3EE21getSplineControlPointEjPi NONAME
    _ZN23ZCom_Replicate_MovementIiLi3EE23getExtrapolatedPositionEiPi NONAME
    _ZN23ZCom_Replicate_MovementIiLi3EE23getExtrapolatedVelocityEiPf NONAME
    _ZN23ZCom_Replicate_MovementIiLi3EE23getLastReceivedPositionEPi NONAME
    _ZN23ZCom_Replicate_MovementIiLi3EE23getLastReceivedVelocityEPf NONAME
    _ZN23ZCom_Replicate_MovementIiLi3EE24getNextInputHistoryEntryEPjPPv NONAME
    _ZN23ZCom_Replicate_MovementIiLi3EE7ProcessE14eZCom_NodeRolej NONAME
    _ZN23ZCom_Replicate_MovementIiLi3EE8peekDataEv NONAME
    _ZN23ZCom_Replicate_MovementIiLi3EEC1EP19ZCom_RSetupMovementIiE NONAME
    _ZN23ZCom_Replicate_MovementIiLi3EEC1Ehhhhss NONAME
    _ZN23ZCom_Replicate_MovementIiLi3EEC2EP19ZCom_RSetupMovementIiE NONAME
    _ZN23ZCom_Replicate_MovementIiLi3EEC2Ehhhhss NONAME
    _ZN23ZCom_Replicate_MovementIiLi3EED0Ev NONAME
    _ZN23ZCom_Replicate_MovementIiLi3EED1Ev NONAME
    _ZN23ZCom_Replicate_MovementIiLi3EED2Ev NONAME
    _ZN23ZCom_Replicate_MovementIjLi1EE10onDataLostEjjP14ZCom_BitStream NONAME
    _ZN23ZCom_Replicate_MovementIjLi1EE11onDataAckedEjjP14ZCom_BitStream NONAME
    _ZN23ZCom_Replicate_MovementIjLi1EE11updateInputEPjP14ZCom_BitStream NONAME
    _ZN23ZCom_Replicate_MovementIjLi1EE11updateStateEPjPfS2_b NONAME
    _ZN23ZCom_Replicate_MovementIjLi1EE12setTimeScaleEf NONAME
    _ZN23ZCom_Replicate_MovementIjLi1EE13clearPeekDataEv NONAME
    _ZN23ZCom_Replicate_MovementIjLi1EE13onPreSendDataEj14eZCom_NodeRolePj NONAME
    _ZN23ZCom_Replicate_MovementIjLi1EE13overrideStateEPjPfS2_i NONAME
    _ZN23ZCom_Replicate_MovementIjLi1EE14getSplinePointEfPj NONAME
    _ZN23ZCom_Replicate_MovementIjLi1EE14onDataReceivedEj14eZCom_NodeRoleR14ZCom_BitStreambj NONAME
    _ZN23ZCom_Replicate_MovementIjLi1EE15getAccelerationEPf NONAME
    _ZN23ZCom_Replicate_MovementIjLi1EE16onPacketReceivedEj NONAME
    _ZN23ZCom_Replicate_MovementIjLi1EE17onConnectionAddedEj14eZCom_NodeRole NONAME
    _ZN23ZCom_Replicate_MovementIjLi1EE17setUpdateListenerEP23ZCom_MoveUpdateListenerIjE NONAME
    _ZN23ZCom_Replicate_MovementIjLi1EE18onLocalRoleChangedE14eZCom_NodeRoleS1_ NONAME
    _ZN23ZCom_Replicate_MovementIjLi1EE19onConnectionRemovedEj14eZCom_NodeRole NONAME
    _ZN23ZCom_Replicate_MovementIjLi1EE19onRemoteRoleChangedEj14eZCom_NodeRoleS1_ NONAME
    _ZN23ZCom_Replicate_MovementIjLi1EE21getSplineControlPointEjPj NONAME
    _ZN23ZCom_Replicate_MovementIjLi1EE23getExtrapolatedPositionEiPj NONAME
    _ZN23ZCom_Replicate_MovementIjLi1EE23getExtrapolatedVelocityEiPf NONAME
    _ZN23ZCom_Replicate_MovementIjLi1EE23getLastReceivedPositionEPj NONAME
    _ZN23ZCom_Replicate_MovementIjLi1EE23getLastReceivedVelocityEPf NONAME
    _ZN23ZCom_Replicate_MovementIjLi1EE24getNextInputHistoryEntryEPjPPv NONAME
    _ZN23ZCom_Replicate_MovementIjLi1EE7ProcessE14eZCom_NodeRolej NONAME
    _ZN23ZCom_Replicate_MovementIjLi1EE8peekDataEv NONAME
    _ZN23ZCom_Replicate_MovementIjLi1EEC1EP19ZCom_RSetupMovementIjE NONAME
    _ZN23ZCom_Replicate_MovementIjLi1EEC1Ehhhhss NONAME
    _ZN23ZCom_Replicate_MovementIjLi1EEC2EP19ZCom_RSetupMovementIjE NONAME
    _ZN23ZCom_Replicate_MovementIjLi1EEC2Ehhhhss NONAME
    _ZN23ZCom_Replicate_MovementIjLi1EED0Ev NONAME
    _ZN23ZCom_Replicate_MovementIjLi1EED1Ev NONAME
    _ZN23ZCom_Replicate_MovementIjLi1EED2Ev NONAME
    _ZN23ZCom_Replicate_MovementIjLi2EE10onDataLostEjjP14ZCom_BitStream NONAME
    _ZN23ZCom_Replicate_MovementIjLi2EE11onDataAckedEjjP14ZCom_BitStream NONAME
    _ZN23ZCom_Replicate_MovementIjLi2EE11updateInputEPjP14ZCom_BitStream NONAME
    _ZN23ZCom_Replicate_MovementIjLi2EE11updateStateEPjPfS2_b NONAME
    _ZN23ZCom_Replicate_MovementIjLi2EE12setTimeScaleEf NONAME
    _ZN23ZCom_Replicate_MovementIjLi2EE13clearPeekDataEv NONAME
    _ZN23ZCom_Replicate_MovementIjLi2EE13onPreSendDataEj14eZCom_NodeRolePj NONAME
    _ZN23ZCom_Replicate_MovementIjLi2EE13overrideStateEPjPfS2_i NONAME
    _ZN23ZCom_Replicate_MovementIjLi2EE14getSplinePointEfPj NONAME
    _ZN23ZCom_Replicate_MovementIjLi2EE14onDataReceivedEj14eZCom_NodeRoleR14ZCom_BitStreambj NONAME
    _ZN23ZCom_Replicate_MovementIjLi2EE15getAccelerationEPf NONAME
    _ZN23ZCom_Replicate_MovementIjLi2EE16onPacketReceivedEj NONAME
    _ZN23ZCom_Replicate_MovementIjLi2EE17onConnectionAddedEj14eZCom_NodeRole NONAME
    _ZN23ZCom_Replicate_MovementIjLi2EE17setUpdateListenerEP23ZCom_MoveUpdateListenerIjE NONAME
    _ZN23ZCom_Replicate_MovementIjLi2EE18onLocalRoleChangedE14eZCom_NodeRoleS1_ NONAME
    _ZN23ZCom_Replicate_MovementIjLi2EE19onConnectionRemovedEj14eZCom_NodeRole NONAME
    _ZN23ZCom_Replicate_MovementIjLi2EE19onRemoteRoleChangedEj14eZCom_NodeRoleS1_ NONAME
    _ZN23ZCom_Replicate_MovementIjLi2EE21getSplineControlPointEjPj NONAME
    _ZN23ZCom_Replicate_MovementIjLi2EE23getExtrapolatedPositionEiPj NONAME
    _ZN23ZCom_Replicate_MovementIjLi2EE23getExtrapolatedVelocityEiPf NONAME
    _ZN23ZCom_Replicate_MovementIjLi2EE23getLastReceivedPositionEPj NONAME
    _ZN23ZCom_Replicate_MovementIjLi2EE23getLastReceivedVelocityEPf NONAME
    _ZN23ZCom_Replicate_MovementIjLi2EE24getNextInputHistoryEntryEPjPPv NONAME
    _ZN23ZCom_Replicate_MovementIjLi2EE7ProcessE14eZCom_NodeRolej NONAME
    _ZN23ZCom_Replicate_MovementIjLi2EE8peekDataEv NONAME
    _ZN23ZCom_Replicate_MovementIjLi2EEC1EP19ZCom_RSetupMovementIjE NONAME
    _ZN23ZCom_Replicate_MovementIjLi2EEC1Ehhhhss NONAME
    _ZN23ZCom_Replicate_MovementIjLi2EEC2EP19ZCom_RSetupMovementIjE NONAME
    _ZN23ZCom_Replicate_MovementIjLi2EEC2Ehhhhss NONAME
    _ZN23ZCom_Replicate_MovementIjLi2EED0Ev NONAME
    _ZN23ZCom_Replicate_MovementIjLi2EED1Ev NONAME
    _ZN23ZCom_Replicate_MovementIjLi2EED2Ev NONAME
    _ZN23ZCom_Replicate_MovementIjLi3EE10onDataLostEjjP14ZCom_BitStream NONAME
    _ZN23ZCom_Replicate_MovementIjLi3EE11onDataAckedEjjP14ZCom_BitStream NONAME
    _ZN23ZCom_Replicate_MovementIjLi3EE11updateInputEPjP14ZCom_BitStream NONAME
    _ZN23ZCom_Replicate_MovementIjLi3EE11updateStateEPjPfS2_b NONAME
    _ZN23ZCom_Replicate_MovementIjLi3EE12setTimeScaleEf NONAME
    _ZN23ZCom_Replicate_MovementIjLi3EE13clearPeekDataEv NONAME
    _ZN23ZCom_Replicate_MovementIjLi3EE13onPreSendDataEj14eZCom_NodeRolePj NONAME
    _ZN23ZCom_Replicate_MovementIjLi3EE13overrideStateEPjPfS2_i NONAME
    _ZN23ZCom_Replicate_MovementIjLi3EE14getSplinePointEfPj NONAME
    _ZN23ZCom_Replicate_MovementIjLi3EE14onDataReceivedEj14eZCom_NodeRoleR14ZCom_BitStreambj NONAME
    _ZN23ZCom_Replicate_MovementIjLi3EE15getAccelerationEPf NONAME
    _ZN23ZCom_Replicate_MovementIjLi3EE16onPacketReceivedEj NONAME
    _ZN23ZCom_Replicate_MovementIjLi3EE17onConnectionAddedEj14eZCom_NodeRole NONAME
    _ZN23ZCom_Replicate_MovementIjLi3EE17setUpdateListenerEP23ZCom_MoveUpdateListenerIjE NONAME
    _ZN23ZCom_Replicate_MovementIjLi3EE18onLocalRoleChangedE14eZCom_NodeRoleS1_ NONAME
    _ZN23ZCom_Replicate_MovementIjLi3EE19onConnectionRemovedEj14eZCom_NodeRole NONAME
    _ZN23ZCom_Replicate_MovementIjLi3EE19onRemoteRoleChangedEj14eZCom_NodeRoleS1_ NONAME
    _ZN23ZCom_Replicate_MovementIjLi3EE21getSplineControlPointEjPj NONAME
    _ZN23ZCom_Replicate_MovementIjLi3EE23getExtrapolatedPositionEiPj NONAME
    _ZN23ZCom_Replicate_MovementIjLi3EE23getExtrapolatedVelocityEiPf NONAME
    _ZN23ZCom_Replicate_MovementIjLi3EE23getLastReceivedPositionEPj NONAME
    _ZN23ZCom_Replicate_MovementIjLi3EE23getLastReceivedVelocityEPf NONAME
    _ZN23ZCom_Replicate_MovementIjLi3EE24getNextInputHistoryEntryEPjPPv NONAME
    _ZN23ZCom_Replicate_MovementIjLi3EE7ProcessE14eZCom_NodeRolej NONAME
    _ZN23ZCom_Replicate_MovementIjLi3EE8peekDataEv NONAME
    _ZN23ZCom_Replicate_MovementIjLi3EEC1EP19ZCom_RSetupMovementIjE NONAME
    _ZN23ZCom_Replicate_MovementIjLi3EEC1Ehhhhss NONAME
    _ZN23ZCom_Replicate_MovementIjLi3EEC2EP19ZCom_RSetupMovementIjE NONAME
    _ZN23ZCom_Replicate_MovementIjLi3EEC2Ehhhhss NONAME
    _ZN23ZCom_Replicate_MovementIjLi3EED0Ev NONAME
    _ZN23ZCom_Replicate_MovementIjLi3EED1Ev NONAME
    _ZN23ZCom_Replicate_MovementIjLi3EED2Ev NONAME
    _ZN23ZCom_Replicate_StringWp10checkStateEv NONAME
    _ZN23ZCom_Replicate_StringWp10unpackDataEP14ZCom_BitStreambj NONAME
    _ZN23ZCom_Replicate_StringWp13clearPeekDataEv NONAME
    _ZN23ZCom_Replicate_StringWp7ProcessE14eZCom_NodeRolej NONAME
    _ZN23ZCom_Replicate_StringWp8packDataEP14ZCom_BitStream NONAME
    _ZN23ZCom_Replicate_StringWp8peekDataEv NONAME
    _ZN23ZCom_Replicate_StringWpC1EPwP17ZCom_RSetupString NONAME
    _ZN23ZCom_Replicate_StringWpC1EPwthhhss NONAME
    _ZN23ZCom_Replicate_StringWpC2EPwP17ZCom_RSetupString NONAME
    _ZN23ZCom_Replicate_StringWpC2EPwthhhss NONAME
    _ZN23ZCom_Replicate_StringWpD0Ev NONAME
    _ZN23ZCom_Replicate_StringWpD1Ev NONAME
    _ZN23ZCom_Replicate_StringWpD2Ev NONAME
    _ZN23ZCom_ReplicatorAdvanced14sendDataDirectE14eZCom_SendModejP14ZCom_BitStreamj NONAME
    _ZN23ZCom_ReplicatorAdvanced17getLastUpdateTimeEj NONAME
    _ZN23ZCom_ReplicatorAdvanced7setNodeEP9ZCom_Node NONAME
    _ZN23ZCom_ReplicatorAdvanced8sendDataE14eZCom_SendModeP14ZCom_BitStreamj NONAME
    _ZN23ZCom_ReplicatorAdvancedC1EP20ZCom_ReplicatorSetup NONAME
    _ZN23ZCom_ReplicatorAdvancedC2EP20ZCom_ReplicatorSetup NONAME
    _ZN23ZCom_ReplicatorAdvancedD0Ev NONAME
    _ZN23ZCom_ReplicatorAdvancedD1Ev NONAME
    _ZN7ZoidCom11setLogLevelEh NONAME
    _ZN7ZoidCom16setResendTimeoutEj NONAME
    _ZN7ZoidCom20setConnectionTimeoutEj NONAME
    _ZN7ZoidCom22overrideMemoryHandlersEPFPvjEPFvS0_E NONAME
    _ZN7ZoidCom4InitEv NONAME
    _ZN7ZoidCom5ClearEv NONAME
    _ZN7ZoidCom5SleepEj NONAME
    _ZN7ZoidCom7getTimeEv NONAME
    _ZN7ZoidComC1EPFvPKcE NONAME
    _ZN7ZoidComC1EPKc NONAME
    _ZN7ZoidComC1Ev NONAME
    _ZN7ZoidComC2EPFvPKcE NONAME
    _ZN7ZoidComC2EPKc NONAME
    _ZN7ZoidComC2Ev NONAME
    _ZN7ZoidComD1Ev NONAME
    _ZN7ZoidComD2Ev NONAME
    _ZN9ZCom_Node10acceptFileEjjPKcb NONAME
    _ZN9ZCom_Node10setPrivateEb NONAME
    _ZN9ZCom_Node11setMustSyncEbt NONAME
    _ZN9ZCom_Node11setUserDataEPv NONAME
    _ZN9ZCom_Node11setUserDataEjPv NONAME
    _ZN9ZCom_Node12getNextEventEP11eZCom_EventP14eZCom_NodeRolePjS4_ NONAME
    _ZN9ZCom_Node13addReplicatorEP15ZCom_Replicatorb NONAME
    _ZN9ZCom_Node13disconnectAllEv NONAME
    _ZN9ZCom_Node13setSyncResultEjbP14ZCom_BitStream NONAME
    _ZN9ZCom_Node14setInterceptIDEh NONAME
    _ZN9ZCom_Node14unregisterNodeEv NONAME
    _ZN9ZCom_Node15sendEventDirectE14eZCom_SendModeP14ZCom_BitStreamj NONAME
    _ZN9ZCom_Node15setAnnounceDataEP14ZCom_BitStream NONAME
    _ZN9ZCom_Node16sendEventToGroupE14eZCom_SendModeP14ZCom_BitStreamj NONAME
    _ZN9ZCom_Node17addReplicationIntEPihbhhss NONAME
    _ZN9ZCom_Node17applyForZoidLevelEh NONAME
    _ZN9ZCom_Node17registerNodeByTagEjj14eZCom_NodeRoleP12ZCom_Control NONAME
    _ZN9ZCom_Node17setUpdatePriorityEt NONAME
    _ZN9ZCom_Node18addReplicationBoolEPbhhss NONAME
    _ZN9ZCom_Node18registerNodeUniqueEj14eZCom_NodeRoleP12ZCom_Control NONAME
    _ZN9ZCom_Node19addInterpolationIntEPihbhhiS0_ssf NONAME
    _ZN9ZCom_Node19addReplicationFloatEPfhhhss NONAME
    _ZN9ZCom_Node19endReplicationSetupEv NONAME
    _ZN9ZCom_Node19registerNodeDynamicEjP12ZCom_Control NONAME
    _ZN9ZCom_Node19removeFromZoidLevelEh NONAME
    _ZN9ZCom_Node19setDefaultRelevanceEf NONAME
    _ZN9ZCom_Node19setEventInterceptorEP25ZCom_NodeEventInterceptor NONAME
    _ZN9ZCom_Node20addReplicationStringEPcthhss NONAME
    _ZN9ZCom_Node20setEventNotificationEbb NONAME
    _ZN9ZCom_Node21addInterpolationFloatEPfhhhfS0_ssf NONAME
    _ZN9ZCom_Node21addReplicationStringWEPwthhss NONAME
    _ZN9ZCom_Node21beginReplicationSetupEt NONAME
    _ZN9ZCom_Node21registerRequestedNodeEjP12ZCom_Control NONAME
    _ZN9ZCom_Node24setSyncResultAutoSuccessEb NONAME
    _ZN9ZCom_Node25setReplicationInterceptorEP31ZCom_NodeReplicationInterceptor NONAME
    _ZN9ZCom_Node30setConnectionSpecificRelevanceEjf NONAME
    _ZN9ZCom_Node8sendFileEPKcS1_jP14ZCom_BitStreamf NONAME
    _ZN9ZCom_Node8setOwnerEjb NONAME
    _ZN9ZCom_Node9dependsOnEPS_19eZCom_DependencyOpt NONAME
    _ZN9ZCom_Node9sendEventE14eZCom_SendModehP14ZCom_BitStream NONAME
    _ZN9ZCom_NodeC1Ev NONAME
    _ZN9ZCom_NodeC2Ev NONAME
    _ZN9ZCom_NodeD1Ev NONAME
    _ZN9ZCom_NodeD2Ev NONAME
    _ZNK12ZCom_Address12getAddressIPE24eZCom_GetIPAddressOption NONAME
    _ZNK12ZCom_Address12getControlIDEv NONAME
    _ZNK12ZCom_Address14computeHashKeyEj NONAME
    _ZNK12ZCom_Address18getAddressHostnameEv NONAME
    _ZNK12ZCom_Address5getIPEh NONAME
    _ZNK12ZCom_Address5getIPEv NONAME
    _ZNK12ZCom_Address7getPortEv NONAME
    _ZNK12ZCom_Address7getTypeEv NONAME
    _ZNK12ZCom_Address8toStringEv NONAME
    _ZNK12ZCom_AddresseqERKS_ NONAME
    _ZNK12ZCom_Control12ZCom_getNodeEj NONAME
    _ZNK12ZCom_Control12ZCom_getPeerEj NONAME
    _ZNK12ZCom_Control15ZCom_getClassIDEPKc NONAME
    _ZNK12ZCom_Control16ZCom_getUserDataEj NONAME
    _ZNK12ZCom_Control23ZCom_getConnectionStatsEj NONAME
    _ZNK14ZCom_BitStream7isEqualERKS_ NONAME
    _ZNK14ZCom_BitStream9DuplicateEv NONAME
    _ZNK15ZCom_Replicator13getPeekStreamEv NONAME
    _ZNK16ZCom_InterpolateIPfLi10EE7getSizeEv NONAME
    _ZNK16ZCom_InterpolateIPfLi10EE9getRecValEh NONAME
    _ZNK16ZCom_InterpolateIPfLi11EE7getSizeEv NONAME
    _ZNK16ZCom_InterpolateIPfLi11EE9getRecValEh NONAME
    _ZNK16ZCom_InterpolateIPfLi12EE7getSizeEv NONAME
    _ZNK16ZCom_InterpolateIPfLi12EE9getRecValEh NONAME
    _ZNK16ZCom_InterpolateIPfLi1EE7getSizeEv NONAME
    _ZNK16ZCom_InterpolateIPfLi1EE9getRecValEh NONAME
    _ZNK16ZCom_InterpolateIPfLi2EE7getSizeEv NONAME
    _ZNK16ZCom_InterpolateIPfLi2EE9getRecValEh NONAME
    _ZNK16ZCom_InterpolateIPfLi3EE7getSizeEv NONAME
    _ZNK16ZCom_InterpolateIPfLi3EE9getRecValEh NONAME
    _ZNK16ZCom_InterpolateIPfLi4EE7getSizeEv NONAME
    _ZNK16ZCom_InterpolateIPfLi4EE9getRecValEh NONAME
    _ZNK16ZCom_InterpolateIPfLi5EE7getSizeEv NONAME
    _ZNK16ZCom_InterpolateIPfLi5EE9getRecValEh NONAME
    _ZNK16ZCom_InterpolateIPfLi6EE7getSizeEv NONAME
    _ZNK16ZCom_InterpolateIPfLi6EE9getRecValEh NONAME
    _ZNK16ZCom_InterpolateIPfLi7EE7getSizeEv NONAME
    _ZNK16ZCom_InterpolateIPfLi7EE9getRecValEh NONAME
    _ZNK16ZCom_InterpolateIPfLi8EE7getSizeEv NONAME
    _ZNK16ZCom_InterpolateIPfLi8EE9getRecValEh NONAME
    _ZNK16ZCom_InterpolateIPfLi9EE7getSizeEv NONAME
    _ZNK16ZCom_InterpolateIPfLi9EE9getRecValEh NONAME
    _ZNK16ZCom_InterpolateIPiLi10EE7getSizeEv NONAME
    _ZNK16ZCom_InterpolateIPiLi10EE9getRecValEh NONAME
    _ZNK16ZCom_InterpolateIPiLi11EE7getSizeEv NONAME
    _ZNK16ZCom_InterpolateIPiLi11EE9getRecValEh NONAME
    _ZNK16ZCom_InterpolateIPiLi12EE7getSizeEv NONAME
    _ZNK16ZCom_InterpolateIPiLi12EE9getRecValEh NONAME
    _ZNK16ZCom_InterpolateIPiLi1EE7getSizeEv NONAME
    _ZNK16ZCom_InterpolateIPiLi1EE9getRecValEh NONAME
    _ZNK16ZCom_InterpolateIPiLi2EE7getSizeEv NONAME
    _ZNK16ZCom_InterpolateIPiLi2EE9getRecValEh NONAME
    _ZNK16ZCom_InterpolateIPiLi3EE7getSizeEv NONAME
    _ZNK16ZCom_InterpolateIPiLi3EE9getRecValEh NONAME
    _ZNK16ZCom_InterpolateIPiLi4EE7getSizeEv NONAME
    _ZNK16ZCom_InterpolateIPiLi4EE9getRecValEh NONAME
    _ZNK16ZCom_InterpolateIPiLi5EE7getSizeEv NONAME
    _ZNK16ZCom_InterpolateIPiLi5EE9getRecValEh NONAME
    _ZNK16ZCom_InterpolateIPiLi6EE7getSizeEv NONAME
    _ZNK16ZCom_InterpolateIPiLi6EE9getRecValEh NONAME
    _ZNK16ZCom_InterpolateIPiLi7EE7getSizeEv NONAME
    _ZNK16ZCom_InterpolateIPiLi7EE9getRecValEh NONAME
    _ZNK16ZCom_InterpolateIPiLi8EE7getSizeEv NONAME
    _ZNK16ZCom_InterpolateIPiLi8EE9getRecValEh NONAME
    _ZNK16ZCom_InterpolateIPiLi9EE7getSizeEv NONAME
    _ZNK16ZCom_InterpolateIPiLi9EE9getRecValEh NONAME
    _ZNK16ZCom_InterpolateIPjLi10EE7getSizeEv NONAME
    _ZNK16ZCom_InterpolateIPjLi10EE9getRecValEh NONAME
    _ZNK16ZCom_InterpolateIPjLi11EE7getSizeEv NONAME
    _ZNK16ZCom_InterpolateIPjLi11EE9getRecValEh NONAME
    _ZNK16ZCom_InterpolateIPjLi12EE7getSizeEv NONAME
    _ZNK16ZCom_InterpolateIPjLi12EE9getRecValEh NONAME
    _ZNK16ZCom_InterpolateIPjLi1EE7getSizeEv NONAME
    _ZNK16ZCom_InterpolateIPjLi1EE9getRecValEh NONAME
    _ZNK16ZCom_InterpolateIPjLi2EE7getSizeEv NONAME
    _ZNK16ZCom_InterpolateIPjLi2EE9getRecValEh NONAME
    _ZNK16ZCom_InterpolateIPjLi3EE7getSizeEv NONAME
    _ZNK16ZCom_InterpolateIPjLi3EE9getRecValEh NONAME
    _ZNK16ZCom_InterpolateIPjLi4EE7getSizeEv NONAME
    _ZNK16ZCom_InterpolateIPjLi4EE9getRecValEh NONAME
    _ZNK16ZCom_InterpolateIPjLi5EE7getSizeEv NONAME
    _ZNK16ZCom_InterpolateIPjLi5EE9getRecValEh NONAME
    _ZNK16ZCom_InterpolateIPjLi6EE7getSizeEv NONAME
    _ZNK16ZCom_InterpolateIPjLi6EE9getRecValEh NONAME
    _ZNK16ZCom_InterpolateIPjLi7EE7getSizeEv NONAME
    _ZNK16ZCom_InterpolateIPjLi7EE9getRecValEh NONAME
    _ZNK16ZCom_InterpolateIPjLi8EE7getSizeEv NONAME
    _ZNK16ZCom_InterpolateIPjLi8EE9getRecValEh NONAME
    _ZNK16ZCom_InterpolateIPjLi9EE7getSizeEv NONAME
    _ZNK16ZCom_InterpolateIPjLi9EE9getRecValEh NONAME
    _ZNK16ZCom_InterpolateIfLi10EE7getSizeEv NONAME
    _ZNK16ZCom_InterpolateIfLi10EE9getRecValEh NONAME
    _ZNK16ZCom_InterpolateIfLi11EE7getSizeEv NONAME
    _ZNK16ZCom_InterpolateIfLi11EE9getRecValEh NONAME
    _ZNK16ZCom_InterpolateIfLi12EE7getSizeEv NONAME
    _ZNK16ZCom_InterpolateIfLi12EE9getRecValEh NONAME
    _ZNK16ZCom_InterpolateIfLi1EE7getSizeEv NONAME
    _ZNK16ZCom_InterpolateIfLi1EE9getRecValEh NONAME
    _ZNK16ZCom_InterpolateIfLi2EE7getSizeEv NONAME
    _ZNK16ZCom_InterpolateIfLi2EE9getRecValEh NONAME
    _ZNK16ZCom_InterpolateIfLi3EE7getSizeEv NONAME
    _ZNK16ZCom_InterpolateIfLi3EE9getRecValEh NONAME
    _ZNK16ZCom_InterpolateIfLi4EE7getSizeEv NONAME
    _ZNK16ZCom_InterpolateIfLi4EE9getRecValEh NONAME
    _ZNK16ZCom_InterpolateIfLi5EE7getSizeEv NONAME
    _ZNK16ZCom_InterpolateIfLi5EE9getRecValEh NONAME
    _ZNK16ZCom_InterpolateIfLi6EE7getSizeEv NONAME
    _ZNK16ZCom_InterpolateIfLi6EE9getRecValEh NONAME
    _ZNK16ZCom_InterpolateIfLi7EE7getSizeEv NONAME
    _ZNK16ZCom_InterpolateIfLi7EE9getRecValEh NONAME
    _ZNK16ZCom_InterpolateIfLi8EE7getSizeEv NONAME
    _ZNK16ZCom_InterpolateIfLi8EE9getRecValEh NONAME
    _ZNK16ZCom_InterpolateIfLi9EE7getSizeEv NONAME
    _ZNK16ZCom_InterpolateIfLi9EE9getRecValEh NONAME
    _ZNK16ZCom_InterpolateIiLi10EE7getSizeEv NONAME
    _ZNK16ZCom_InterpolateIiLi10EE9getRecValEh NONAME
    _ZNK16ZCom_InterpolateIiLi11EE7getSizeEv NONAME
    _ZNK16ZCom_InterpolateIiLi11EE9getRecValEh NONAME
    _ZNK16ZCom_InterpolateIiLi12EE7getSizeEv NONAME
    _ZNK16ZCom_InterpolateIiLi12EE9getRecValEh NONAME
    _ZNK16ZCom_InterpolateIiLi1EE7getSizeEv NONAME
    _ZNK16ZCom_InterpolateIiLi1EE9getRecValEh NONAME
    _ZNK16ZCom_InterpolateIiLi2EE7getSizeEv NONAME
    _ZNK16ZCom_InterpolateIiLi2EE9getRecValEh NONAME
    _ZNK16ZCom_InterpolateIiLi3EE7getSizeEv NONAME
    _ZNK16ZCom_InterpolateIiLi3EE9getRecValEh NONAME
    _ZNK16ZCom_InterpolateIiLi4EE7getSizeEv NONAME
    _ZNK16ZCom_InterpolateIiLi4EE9getRecValEh NONAME
    _ZNK16ZCom_InterpolateIiLi5EE7getSizeEv NONAME
    _ZNK16ZCom_InterpolateIiLi5EE9getRecValEh NONAME
    _ZNK16ZCom_InterpolateIiLi6EE7getSizeEv NONAME
    _ZNK16ZCom_InterpolateIiLi6EE9getRecValEh NONAME
    _ZNK16ZCom_InterpolateIiLi7EE7getSizeEv NONAME
    _ZNK16ZCom_InterpolateIiLi7EE9getRecValEh NONAME
    _ZNK16ZCom_InterpolateIiLi8EE7getSizeEv NONAME
    _ZNK16ZCom_InterpolateIiLi8EE9getRecValEh NONAME
    _ZNK16ZCom_InterpolateIiLi9EE7getSizeEv NONAME
    _ZNK16ZCom_InterpolateIiLi9EE9getRecValEh NONAME
    _ZNK16ZCom_InterpolateIjLi10EE7getSizeEv NONAME
    _ZNK16ZCom_InterpolateIjLi10EE9getRecValEh NONAME
    _ZNK16ZCom_InterpolateIjLi11EE7getSizeEv NONAME
    _ZNK16ZCom_InterpolateIjLi11EE9getRecValEh NONAME
    _ZNK16ZCom_InterpolateIjLi12EE7getSizeEv NONAME
    _ZNK16ZCom_InterpolateIjLi12EE9getRecValEh NONAME
    _ZNK16ZCom_InterpolateIjLi1EE7getSizeEv NONAME
    _ZNK16ZCom_InterpolateIjLi1EE9getRecValEh NONAME
    _ZNK16ZCom_InterpolateIjLi2EE7getSizeEv NONAME
    _ZNK16ZCom_InterpolateIjLi2EE9getRecValEh NONAME
    _ZNK16ZCom_InterpolateIjLi3EE7getSizeEv NONAME
    _ZNK16ZCom_InterpolateIjLi3EE9getRecValEh NONAME
    _ZNK16ZCom_InterpolateIjLi4EE7getSizeEv NONAME
    _ZNK16ZCom_InterpolateIjLi4EE9getRecValEh NONAME
    _ZNK16ZCom_InterpolateIjLi5EE7getSizeEv NONAME
    _ZNK16ZCom_InterpolateIjLi5EE9getRecValEh NONAME
    _ZNK16ZCom_InterpolateIjLi6EE7getSizeEv NONAME
    _ZNK16ZCom_InterpolateIjLi6EE9getRecValEh NONAME
    _ZNK16ZCom_InterpolateIjLi7EE7getSizeEv NONAME
    _ZNK16ZCom_InterpolateIjLi7EE9getRecValEh NONAME
    _ZNK16ZCom_InterpolateIjLi8EE7getSizeEv NONAME
    _ZNK16ZCom_InterpolateIjLi8EE9getRecValEh NONAME
    _ZNK16ZCom_InterpolateIjLi9EE7getSizeEv NONAME
    _ZNK16ZCom_InterpolateIjLi9EE9getRecValEh NONAME
    _ZNK18ZCom_RSetupNumeric15getRelevantBitsEv NONAME
    _ZNK22ZCom_Replicate_NumericIPfLi10EE7getSizeEv NONAME
    _ZNK22ZCom_Replicate_NumericIPfLi11EE7getSizeEv NONAME
    _ZNK22ZCom_Replicate_NumericIPfLi12EE7getSizeEv NONAME
    _ZNK22ZCom_Replicate_NumericIPfLi1EE7getSizeEv NONAME
    _ZNK22ZCom_Replicate_NumericIPfLi2EE7getSizeEv NONAME
    _ZNK22ZCom_Replicate_NumericIPfLi3EE7getSizeEv NONAME
    _ZNK22ZCom_Replicate_NumericIPfLi4EE7getSizeEv NONAME
    _ZNK22ZCom_Replicate_NumericIPfLi5EE7getSizeEv NONAME
    _ZNK22ZCom_Replicate_NumericIPfLi6EE7getSizeEv NONAME
    _ZNK22ZCom_Replicate_NumericIPfLi7EE7getSizeEv NONAME
    _ZNK22ZCom_Replicate_NumericIPfLi8EE7getSizeEv NONAME
    _ZNK22ZCom_Replicate_NumericIPfLi9EE7getSizeEv NONAME
    _ZNK22ZCom_Replicate_NumericIPiLi10EE7getSizeEv NONAME
    _ZNK22ZCom_Replicate_NumericIPiLi11EE7getSizeEv NONAME
    _ZNK22ZCom_Replicate_NumericIPiLi12EE7getSizeEv NONAME
    _ZNK22ZCom_Replicate_NumericIPiLi1EE7getSizeEv NONAME
    _ZNK22ZCom_Replicate_NumericIPiLi2EE7getSizeEv NONAME
    _ZNK22ZCom_Replicate_NumericIPiLi3EE7getSizeEv NONAME
    _ZNK22ZCom_Replicate_NumericIPiLi4EE7getSizeEv NONAME
    _ZNK22ZCom_Replicate_NumericIPiLi5EE7getSizeEv NONAME
    _ZNK22ZCom_Replicate_NumericIPiLi6EE7getSizeEv NONAME
    _ZNK22ZCom_Replicate_NumericIPiLi7EE7getSizeEv NONAME
    _ZNK22ZCom_Replicate_NumericIPiLi8EE7getSizeEv NONAME
    _ZNK22ZCom_Replicate_NumericIPiLi9EE7getSizeEv NONAME
    _ZNK22ZCom_Replicate_NumericIPjLi10EE7getSizeEv NONAME
    _ZNK22ZCom_Replicate_NumericIPjLi11EE7getSizeEv NONAME
    _ZNK22ZCom_Replicate_NumericIPjLi12EE7getSizeEv NONAME
    _ZNK22ZCom_Replicate_NumericIPjLi1EE7getSizeEv NONAME
    _ZNK22ZCom_Replicate_NumericIPjLi2EE7getSizeEv NONAME
    _ZNK22ZCom_Replicate_NumericIPjLi3EE7getSizeEv NONAME
    _ZNK22ZCom_Replicate_NumericIPjLi4EE7getSizeEv NONAME
    _ZNK22ZCom_Replicate_NumericIPjLi5EE7getSizeEv NONAME
    _ZNK22ZCom_Replicate_NumericIPjLi6EE7getSizeEv NONAME
    _ZNK22ZCom_Replicate_NumericIPjLi7EE7getSizeEv NONAME
    _ZNK22ZCom_Replicate_NumericIPjLi8EE7getSizeEv NONAME
    _ZNK22ZCom_Replicate_NumericIPjLi9EE7getSizeEv NONAME
    _ZNK22ZCom_Replicate_NumericIfLi10EE7getSizeEv NONAME
    _ZNK22ZCom_Replicate_NumericIfLi11EE7getSizeEv NONAME
    _ZNK22ZCom_Replicate_NumericIfLi12EE7getSizeEv NONAME
    _ZNK22ZCom_Replicate_NumericIfLi1EE7getSizeEv NONAME
    _ZNK22ZCom_Replicate_NumericIfLi2EE7getSizeEv NONAME
    _ZNK22ZCom_Replicate_NumericIfLi3EE7getSizeEv NONAME
    _ZNK22ZCom_Replicate_NumericIfLi4EE7getSizeEv NONAME
    _ZNK22ZCom_Replicate_NumericIfLi5EE7getSizeEv NONAME
    _ZNK22ZCom_Replicate_NumericIfLi6EE7getSizeEv NONAME
    _ZNK22ZCom_Replicate_NumericIfLi7EE7getSizeEv NONAME
    _ZNK22ZCom_Replicate_NumericIfLi8EE7getSizeEv NONAME
    _ZNK22ZCom_Replicate_NumericIfLi9EE7getSizeEv NONAME
    _ZNK22ZCom_Replicate_NumericIiLi10EE7getSizeEv NONAME
    _ZNK22ZCom_Replicate_NumericIiLi11EE7getSizeEv NONAME
    _ZNK22ZCom_Replicate_NumericIiLi12EE7getSizeEv NONAME
    _ZNK22ZCom_Replicate_NumericIiLi1EE7getSizeEv NONAME
    _ZNK22ZCom_Replicate_NumericIiLi2EE7getSizeEv NONAME
    _ZNK22ZCom_Replicate_NumericIiLi3EE7getSizeEv NONAME
    _ZNK22ZCom_Replicate_NumericIiLi4EE7getSizeEv NONAME
    _ZNK22ZCom_Replicate_NumericIiLi5EE7getSizeEv NONAME
    _ZNK22ZCom_Replicate_NumericIiLi6EE7getSizeEv NONAME
    _ZNK22ZCom_Replicate_NumericIiLi7EE7getSizeEv NONAME
    _ZNK22ZCom_Replicate_NumericIiLi8EE7getSizeEv NONAME
    _ZNK22ZCom_Replicate_NumericIiLi9EE7getSizeEv NONAME
    _ZNK22ZCom_Replicate_NumericIjLi10EE7getSizeEv NONAME
    _ZNK22ZCom_Replicate_NumericIjLi11EE7getSizeEv NONAME
    _ZNK22ZCom_Replicate_NumericIjLi12EE7getSizeEv NONAME
    _ZNK22ZCom_Replicate_NumericIjLi1EE7getSizeEv NONAME
    _ZNK22ZCom_Replicate_NumericIjLi2EE7getSizeEv NONAME
    _ZNK22ZCom_Replicate_NumericIjLi3EE7getSizeEv NONAME
    _ZNK22ZCom_Replicate_NumericIjLi4EE7getSizeEv NONAME
    _ZNK22ZCom_Replicate_NumericIjLi5EE7getSizeEv NONAME
    _ZNK22ZCom_Replicate_NumericIjLi6EE7getSizeEv NONAME
    _ZNK22ZCom_Replicate_NumericIjLi7EE7getSizeEv NONAME
    _ZNK22ZCom_Replicate_NumericIjLi8EE7getSizeEv NONAME
    _ZNK22ZCom_Replicate_NumericIjLi9EE7getSizeEv NONAME
    _ZNK23ZCom_ReplicatorAdvanced7getNodeEv NONAME
    _ZNK9ZCom_Node10getClassIDEv NONAME
    _ZNK9ZCom_Node10getControlEv NONAME
    _ZNK9ZCom_Node11getFileInfoEjj NONAME
    _ZNK9ZCom_Node11getUserDataEj NONAME
    _ZNK9ZCom_Node11getUserDataEv NONAME
    _ZNK9ZCom_Node12getNetworkIDEv NONAME
    _ZNK9ZCom_Node12getZoidLevelEj NONAME
    _ZNK9ZCom_Node14getUpdateDeltaEv NONAME
    _ZNK9ZCom_Node17checkEventWaitingEv NONAME
    _ZNK9ZCom_Node17getZoidLevelCountEv NONAME
    _ZNK9ZCom_Node20getCurrentUpdateRateEv NONAME
    _ZNK9ZCom_Node22getRelevantConnectionsEPjjS0_ NONAME
    _ZNK9ZCom_Node26getRelevantConnectionCountEv NONAME
    _ZNK9ZCom_Node35getEstimatedTimeUntilPossibleUpdateEv NONAME
    _ZNK9ZCom_Node7getRoleEv NONAME
    _ZNK9ZCom_Node9isPrivateEv NONAME
    _ZTV12ZCom_Control DATA
    _ZTV15ZCom_Replicator DATA
    _ZTV17ZCom_RSetupString DATA
    _ZTV18ZCom_RSetupNumeric DATA
    _ZTV19ZCom_Replicate_Bool DATA
    _ZTV20ZCom_Replicate_Boolp DATA
    _ZTV20ZCom_ReplicatorBasic DATA
    _ZTV20ZCom_ReplicatorSetup DATA
    _ZTV22ZCom_Replicate_Stringp DATA
    _ZTV23ZCom_Replicate_StringWp DATA
    _ZTV23ZCom_ReplicatorAdvanced DATA